(lp0
ccopy_reg
_reconstructor
p1
(cframe
Frame_Info
p2
c__builtin__
object
p3
Ntp4
Rp5
(dp6
S'num_obj'
p7
I-1
sS'default_path'
p8
S'Not Set'
p9
sS'frame'
p10
I0
sS'filename'
p11
S'12dpm_libx264/frames_tensorbox/000001.jpg'
p12
sS'width'
p13
I-1
sS'rects'
p14
(lp15
g1
(cmulticlass_rectangle
Rectangle_Multiclass
p16
g3
Ntp17
Rp18
(dp19
S'confidence'
p20
F0.8087539076805115
sS'y2'
p21
F207.5
sS'y1'
p22
F102.5
sS'trackID'
p23
I-1
sS'label_confidence'
p24
I-1
sS'height'
p25
I105
sS'true_confidence'
p26
F0.8087539076805115
sg13
I33
sS'cy'
p27
I155
sS'cx'
p28
I326
sS'label_code'
p29
S'Not Set'
p30
sS'label'
p31
g30
sS'x2'
p32
F342.5
sS'label_chall'
p33
g30
sS'x1'
p34
F309.5
sbag1
(g16
g3
Ntp35
Rp36
(dp37
g20
F0.8506338000297546
sg21
F201.5
sg22
F104.5
sg23
I-1
sg24
I-1
sg25
I97
sg26
F0.8506338000297546
sg13
I26
sg27
I153
sg28
I379
sg29
g30
sg31
g30
sg32
F392.0
sg33
g30
sg34
F366.0
sbag1
(g16
g3
Ntp38
Rp39
(dp40
g20
F0.9995040893554688
sg21
F337.0
sg22
F59.0
sg23
I-1
sg24
I-1
sg25
I278
sg26
F0.9986273050308228
sg13
I85
sg27
I198
sg28
I31
sg29
g30
sg31
g30
sg32
F73.5
sg33
g30
sg34
F-11.5
sbag1
(g16
g3
Ntp41
Rp42
(dp43
g20
F0.9924294352531433
sg21
F253.5
sg22
F96.5
sg23
I-1
sg24
I-1
sg25
I157
sg26
F0.9885239005088806
sg13
I44
sg27
I175
sg28
I216
sg29
g30
sg31
g30
sg32
F238.0
sg33
g30
sg34
F194.0
sbag1
(g16
g3
Ntp44
Rp45
(dp46
g20
F0.9904214143753052
sg21
F212.0
sg22
F98.0
sg23
I-1
sg24
I-1
sg25
I114
sg26
F0.9882498979568481
sg13
I33
sg27
I155
sg28
I290
sg29
g30
sg31
g30
sg32
F306.5
sg33
g30
sg34
F273.5
sbag1
(g16
g3
Ntp47
Rp48
(dp49
g20
F0.9995269775390625
sg21
F336.5
sg22
F73.5
sg23
I-1
sg24
I-1
sg25
I263
sg26
F0.9992940425872803
sg13
I78
sg27
I205
sg28
I108
sg29
g30
sg31
g30
sg32
F147.0
sg33
g30
sg34
F69.0
sbag1
(g16
g3
Ntp50
Rp51
(dp52
g20
F0.9928333759307861
sg21
F255.0
sg22
F85.0
sg23
I-1
sg24
I-1
sg25
I170
sg26
F0.9903704524040222
sg13
I43
sg27
I170
sg28
I176
sg29
g30
sg31
g30
sg32
F197.5
sg33
g30
sg34
F154.5
sbasS'folder'
p53
g9
sg25
I-1
sS'dataset_path'
p54
g9
sbag1
(g2
g3
Ntp55
Rp56
(dp57
g7
I-1
sg8
g9
sg10
I1
sg11
S'12dpm_libx264/frames_tensorbox/000002.jpg'
p58
sg13
I-1
sg14
(lp59
g1
(g16
g3
Ntp60
Rp61
(dp62
g20
F0.9904969930648804
sg21
F222.0
sg22
F102.0
sg23
I-1
sg24
I-1
sg25
I120
sg26
F0.9904969930648804
sg13
I32
sg27
I162
sg28
I288
sg29
g30
sg31
g30
sg32
F304.0
sg33
g30
sg34
F272.0
sbag1
(g16
g3
Ntp63
Rp64
(dp65
g20
F0.9930510520935059
sg21
F256.0
sg22
F90.0
sg23
I-1
sg24
I-1
sg25
I166
sg26
F0.9834269285202026
sg13
I41
sg27
I173
sg28
I172
sg29
g30
sg31
g30
sg32
F192.5
sg33
g30
sg34
F151.5
sbag1
(g16
g3
Ntp66
Rp67
(dp68
g20
F0.9501217603683472
sg21
F308.0
sg22
F94.0
sg23
I-1
sg24
I-1
sg25
I214
sg26
F0.9501217603683472
sg13
I58
sg27
I201
sg28
I136
sg29
g30
sg31
g30
sg32
F165.0
sg33
g30
sg34
F107.0
sbag1
(g16
g3
Ntp69
Rp70
(dp71
g20
F0.9992388486862183
sg21
F352.0
sg22
F58.0
sg23
I-1
sg24
I-1
sg25
I294
sg26
F0.9991577863693237
sg13
I88
sg27
I205
sg28
I25
sg29
g30
sg31
g30
sg32
F69.0
sg33
g30
sg34
F-19.0
sbag1
(g16
g3
Ntp72
Rp73
(dp74
g20
F0.9994420409202576
sg21
F348.0
sg22
F76.0
sg23
I-1
sg24
I-1
sg25
I272
sg26
F0.9992414712905884
sg13
I81
sg27
I212
sg28
I108
sg29
g30
sg31
g30
sg32
F148.5
sg33
g30
sg34
F67.5
sbag1
(g16
g3
Ntp75
Rp76
(dp77
g20
F0.9907564520835876
sg21
F253.0
sg22
F93.0
sg23
I-1
sg24
I-1
sg25
I160
sg26
F0.9892191290855408
sg13
I46
sg27
I173
sg28
I216
sg29
g30
sg31
g30
sg32
F239.0
sg33
g30
sg34
F193.0
sbag1
(g16
g3
Ntp78
Rp79
(dp80
g20
F0.7993683815002441
sg21
F198.5
sg22
F109.5
sg23
I-1
sg24
I-1
sg25
I89
sg26
F0.7993683815002441
sg13
I24
sg27
I154
sg28
I384
sg29
g30
sg31
g30
sg32
F396.0
sg33
g30
sg34
F372.0
sbag1
(g16
g3
Ntp81
Rp82
(dp83
g20
F0.757118284702301
sg21
F213.5
sg22
F112.5
sg23
I-1
sg24
I-1
sg25
I101
sg26
F0.739885687828064
sg13
I27
sg27
I163
sg28
I320
sg29
g30
sg31
g30
sg32
F333.5
sg33
g30
sg34
F306.5
sbasg53
g9
sg25
I-1
sg54
g9
sbag1
(g2
g3
Ntp84
Rp85
(dp86
g7
I-1
sg8
g9
sg10
I2
sg11
S'12dpm_libx264/frames_tensorbox/000003.jpg'
p87
sg13
I-1
sg14
(lp88
g1
(g16
g3
Ntp89
Rp90
(dp91
g20
F0.9136469960212708
sg21
F196.0
sg22
F110.0
sg23
I-1
sg24
I-1
sg25
I86
sg26
F0.9136469960212708
sg13
I25
sg27
I153
sg28
I378
sg29
g30
sg31
g30
sg32
F390.5
sg33
g30
sg34
F365.5
sbag1
(g16
g3
Ntp92
Rp93
(dp94
g20
F0.993216335773468
sg21
F261.5
sg22
F94.5
sg23
I-1
sg24
I-1
sg25
I167
sg26
F0.9900848865509033
sg13
I44
sg27
I178
sg28
I171
sg29
g30
sg31
g30
sg32
F193.0
sg33
g30
sg34
F149.0
sbag1
(g16
g3
Ntp95
Rp96
(dp97
g20
F0.992195725440979
sg21
F218.0
sg22
F100.0
sg23
I-1
sg24
I-1
sg25
I118
sg26
F0.9900888800621033
sg13
I33
sg27
I159
sg28
I288
sg29
g30
sg31
g30
sg32
F304.5
sg33
g30
sg34
F271.5
sbag1
(g16
g3
Ntp98
Rp99
(dp100
g20
F0.9996523857116699
sg21
F353.0
sg22
F65.0
sg23
I-1
sg24
I-1
sg25
I288
sg26
F0.9995618462562561
sg13
I91
sg27
I209
sg28
I23
sg29
g30
sg31
g30
sg32
F68.5
sg33
g30
sg34
F-22.5
sbag1
(g16
g3
Ntp101
Rp102
(dp103
g20
F0.9995787739753723
sg21
F358.5
sg22
F75.5
sg23
I-1
sg24
I-1
sg25
I283
sg26
F0.9994483590126038
sg13
I92
sg27
I217
sg28
I102
sg29
g30
sg31
g30
sg32
F148.0
sg33
g30
sg34
F56.0
sbag1
(g16
g3
Ntp104
Rp105
(dp106
g20
F0.9748221635818481
sg21
F263.5
sg22
F96.5
sg23
I-1
sg24
I-1
sg25
I167
sg26
F0.9652736186981201
sg13
I43
sg27
I180
sg28
I192
sg29
g30
sg31
g30
sg32
F213.5
sg33
g30
sg34
F170.5
sbag1
(g16
g3
Ntp107
Rp108
(dp109
g20
F0.98530513048172
sg21
F257.5
sg22
F90.5
sg23
I-1
sg24
I-1
sg25
I167
sg26
F0.98530513048172
sg13
I42
sg27
I174
sg28
I218
sg29
g30
sg31
g30
sg32
F239.0
sg33
g30
sg34
F197.0
sbag1
(g16
g3
Ntp110
Rp111
(dp112
g20
F0.7266637682914734
sg21
F209.5
sg22
F114.5
sg23
I-1
sg24
I-1
sg25
I95
sg26
F0.7266637682914734
sg13
I26
sg27
I162
sg28
I318
sg29
g30
sg31
g30
sg32
F331.0
sg33
g30
sg34
F305.0
sbag1
(g16
g3
Ntp113
Rp114
(dp115
g20
F0.5281519889831543
sg21
F219.5
sg22
F120.5
sg23
I-1
sg24
I-1
sg25
I99
sg26
F0.5281519889831543
sg13
I33
sg27
I170
sg28
I396
sg29
g30
sg31
g30
sg32
F412.5
sg33
g30
sg34
F379.5
sbasg53
g9
sg25
I-1
sg54
g9
sbag1
(g2
g3
Ntp116
Rp117
(dp118
g7
I-1
sg8
g9
sg10
I3
sg11
S'12dpm_libx264/frames_tensorbox/000004.jpg'
p119
sg13
I-1
sg14
(lp120
g1
(g16
g3
Ntp121
Rp122
(dp123
g20
F0.9215750098228455
sg21
F202.5
sg22
F107.5
sg23
I-1
sg24
I-1
sg25
I95
sg26
F0.9215750098228455
sg13
I26
sg27
I155
sg28
I378
sg29
g30
sg31
g30
sg32
F391.0
sg33
g30
sg34
F365.0
sbag1
(g16
g3
Ntp124
Rp125
(dp126
g20
F0.9949206709861755
sg21
F256.0
sg22
F88.0
sg23
I-1
sg24
I-1
sg25
I168
sg26
F0.9709132313728333
sg13
I46
sg27
I172
sg28
I214
sg29
g30
sg31
g30
sg32
F237.0
sg33
g30
sg34
F191.0
sbag1
(g16
g3
Ntp127
Rp128
(dp129
g20
F0.9881483912467957
sg21
F219.0
sg22
F105.0
sg23
I-1
sg24
I-1
sg25
I114
sg26
F0.9867766499519348
sg13
I32
sg27
I162
sg28
I287
sg29
g30
sg31
g30
sg32
F303.0
sg33
g30
sg34
F271.0
sbag1
(g16
g3
Ntp130
Rp131
(dp132
g20
F0.9997255206108093
sg21
F358.0
sg22
F64.0
sg23
I-1
sg24
I-1
sg25
I294
sg26
F0.9994651675224304
sg13
I96
sg27
I211
sg28
I17
sg29
g30
sg31
g30
sg32
F65.0
sg33
g30
sg34
F-31.0
sbag1
(g16
g3
Ntp133
Rp134
(dp135
g20
F0.990993320941925
sg21
F316.0
sg22
F86.0
sg23
I-1
sg24
I-1
sg25
I230
sg26
F0.990993320941925
sg13
I68
sg27
I201
sg28
I144
sg29
g30
sg31
g30
sg32
F178.0
sg33
g30
sg34
F110.0
sbag1
(g16
g3
Ntp136
Rp137
(dp138
g20
F0.9920067191123962
sg21
F269.0
sg22
F97.0
sg23
I-1
sg24
I-1
sg25
I172
sg26
F0.9878414273262024
sg13
I46
sg27
I183
sg28
I177
sg29
g30
sg31
g30
sg32
F200.0
sg33
g30
sg34
F154.0
sbag1
(g16
g3
Ntp139
Rp140
(dp141
g20
F0.9995282888412476
sg21
F365.0
sg22
F75.0
sg23
I-1
sg24
I-1
sg25
I290
sg26
F0.9994900226593018
sg13
I90
sg27
I220
sg28
I102
sg29
g30
sg31
g30
sg32
F147.0
sg33
g30
sg34
F57.0
sbag1
(g16
g3
Ntp142
Rp143
(dp144
g20
F0.5937755703926086
sg21
F210.5
sg22
F115.5
sg23
I-1
sg24
I-1
sg25
I95
sg26
F0.5937755703926086
sg13
I27
sg27
I163
sg28
I314
sg29
g30
sg31
g30
sg32
F327.5
sg33
g30
sg34
F300.5
sbag1
(g16
g3
Ntp145
Rp146
(dp147
g20
F0.2605101466178894
sg21
F224.0
sg22
F110.0
sg23
I-1
sg24
I-1
sg25
I114
sg26
F0.2605101466178894
sg13
I35
sg27
I167
sg28
I338
sg29
g30
sg31
g30
sg32
F355.5
sg33
g30
sg34
F320.5
sbag1
(g16
g3
Ntp148
Rp149
(dp150
g20
F0.2581414580345154
sg21
F251.0
sg22
F99.0
sg23
I-1
sg24
I-1
sg25
I152
sg26
F0.2581414580345154
sg13
I53
sg27
I175
sg28
I398
sg29
g30
sg31
g30
sg32
F424.5
sg33
g30
sg34
F371.5
sbasg53
g9
sg25
I-1
sg54
g9
sbag1
(g2
g3
Ntp151
Rp152
(dp153
g7
I-1
sg8
g9
sg10
I4
sg11
S'12dpm_libx264/frames_tensorbox/000005.jpg'
p154
sg13
I-1
sg14
(lp155
g1
(g16
g3
Ntp156
Rp157
(dp158
g20
F0.8588845133781433
sg21
F203.5
sg22
F116.5
sg23
I-1
sg24
I-1
sg25
I87
sg26
F0.8588845133781433
sg13
I25
sg27
I160
sg28
I378
sg29
g30
sg31
g30
sg32
F390.5
sg33
g30
sg34
F365.5
sbag1
(g16
g3
Ntp159
Rp160
(dp161
g20
F0.9632806181907654
sg21
F270.0
sg22
F106.0
sg23
I-1
sg24
I-1
sg25
I164
sg26
F0.9632806181907654
sg13
I44
sg27
I188
sg28
I170
sg29
g30
sg31
g30
sg32
F192.0
sg33
g30
sg34
F148.0
sbag1
(g16
g3
Ntp162
Rp163
(dp164
g20
F0.9927797913551331
sg21
F257.5
sg22
F88.5
sg23
I-1
sg24
I-1
sg25
I169
sg26
F0.9927797913551331
sg13
I44
sg27
I173
sg28
I215
sg29
g30
sg31
g30
sg32
F237.0
sg33
g30
sg34
F193.0
sbag1
(g16
g3
Ntp165
Rp166
(dp167
g20
F0.9905939102172852
sg21
F272.0
sg22
F98.0
sg23
I-1
sg24
I-1
sg25
I174
sg26
F0.8835209012031555
sg13
I44
sg27
I185
sg28
I178
sg29
g30
sg31
g30
sg32
F200.0
sg33
g30
sg34
F156.0
sbag1
(g16
g3
Ntp168
Rp169
(dp170
g20
F0.9897123575210571
sg21
F222.5
sg22
F109.5
sg23
I-1
sg24
I-1
sg25
I113
sg26
F0.9879471659660339
sg13
I34
sg27
I166
sg28
I287
sg29
g30
sg31
g30
sg32
F304.0
sg33
g30
sg34
F270.0
sbag1
(g16
g3
Ntp171
Rp172
(dp173
g20
F0.9995357990264893
sg21
F363.5
sg22
F72.5
sg23
I-1
sg24
I-1
sg25
I291
sg26
F0.999480664730072
sg13
I94
sg27
I218
sg28
I19
sg29
g30
sg31
g30
sg32
F66.0
sg33
g30
sg34
F-28.0
sbag1
(g16
g3
Ntp174
Rp175
(dp176
g20
F0.9994527697563171
sg21
F374.5
sg22
F77.5
sg23
I-1
sg24
I-1
sg25
I297
sg26
F0.9993953704833984
sg13
I87
sg27
I226
sg28
I102
sg29
g30
sg31
g30
sg32
F145.5
sg33
g30
sg34
F58.5
sbag1
(g16
g3
Ntp177
Rp178
(dp179
g20
F0.7267774939537048
sg21
F220.5
sg22
F115.5
sg23
I-1
sg24
I-1
sg25
I105
sg26
F0.7267774939537048
sg13
I31
sg27
I168
sg28
I344
sg29
g30
sg31
g30
sg32
F359.5
sg33
g30
sg34
F328.5
sbag1
(g16
g3
Ntp180
Rp181
(dp182
g20
F0.7382550239562988
sg21
F214.5
sg22
F115.5
sg23
I-1
sg24
I-1
sg25
I99
sg26
F0.7382550239562988
sg13
I29
sg27
I165
sg28
I323
sg29
g30
sg31
g30
sg32
F337.5
sg33
g30
sg34
F308.5
sbag1
(g16
g3
Ntp183
Rp184
(dp185
g20
F0.4110066294670105
sg21
F198.0
sg22
F114.0
sg23
I-1
sg24
I-1
sg25
I84
sg26
F0.4110066294670105
sg13
I23
sg27
I156
sg28
I369
sg29
g30
sg31
g30
sg32
F380.5
sg33
g30
sg34
F357.5
sbag1
(g16
g3
Ntp186
Rp187
(dp188
g20
F0.426262229681015
sg21
F183.5
sg22
F136.5
sg23
I-1
sg24
I-1
sg25
I47
sg26
F0.426262229681015
sg13
I12
sg27
I160
sg28
I416
sg29
g30
sg31
g30
sg32
F422.0
sg33
g30
sg34
F410.0
sbag1
(g16
g3
Ntp189
Rp190
(dp191
g20
F0.3159375488758087
sg21
F193.0
sg22
F137.0
sg23
I-1
sg24
I-1
sg25
I56
sg26
F0.3159375488758087
sg13
I13
sg27
I165
sg28
I384
sg29
g30
sg31
g30
sg32
F390.5
sg33
g30
sg34
F377.5
sbasg53
g9
sg25
I-1
sg54
g9
sbag1
(g2
g3
Ntp192
Rp193
(dp194
g7
I-1
sg8
g9
sg10
I5
sg11
S'12dpm_libx264/frames_tensorbox/000006.jpg'
p195
sg13
I-1
sg14
(lp196
g1
(g16
g3
Ntp197
Rp198
(dp199
g20
F0.885453462600708
sg21
F212.5
sg22
F115.5
sg23
I-1
sg24
I-1
sg25
I97
sg26
F0.885453462600708
sg13
I26
sg27
I164
sg28
I379
sg29
g30
sg31
g30
sg32
F392.0
sg33
g30
sg34
F366.0
sbag1
(g16
g3
Ntp200
Rp201
(dp202
g20
F0.9503089189529419
sg21
F220.5
sg22
F113.5
sg23
I-1
sg24
I-1
sg25
I107
sg26
F0.8825016617774963
sg13
I32
sg27
I167
sg28
I340
sg29
g30
sg31
g30
sg32
F356.0
sg33
g30
sg34
F324.0
sbag1
(g16
g3
Ntp203
Rp204
(dp205
g20
F0.9928086996078491
sg21
F225.5
sg22
F104.5
sg23
I-1
sg24
I-1
sg25
I121
sg26
F0.9926431775093079
sg13
I36
sg27
I165
sg28
I291
sg29
g30
sg31
g30
sg32
F309.0
sg33
g30
sg34
F273.0
sbag1
(g16
g3
Ntp206
Rp207
(dp208
g20
F0.9726350903511047
sg21
F273.0
sg22
F97.0
sg23
I-1
sg24
I-1
sg25
I176
sg26
F0.9623615145683289
sg13
I45
sg27
I185
sg28
I190
sg29
g30
sg31
g30
sg32
F212.5
sg33
g30
sg34
F167.5
sbag1
(g16
g3
Ntp209
Rp210
(dp211
g20
F0.9767886400222778
sg21
F265.0
sg22
F107.0
sg23
I-1
sg24
I-1
sg25
I158
sg26
F0.9749051928520203
sg13
I44
sg27
I186
sg28
I164
sg29
g30
sg31
g30
sg32
F186.0
sg33
g30
sg34
F142.0
sbag1
(g16
g3
Ntp212
Rp213
(dp214
g20
F0.9987001419067383
sg21
F368.0
sg22
F80.0
sg23
I-1
sg24
I-1
sg25
I288
sg26
F0.9947757720947266
sg13
I86
sg27
I224
sg28
I13
sg29
g30
sg31
g30
sg32
F56.0
sg33
g30
sg34
F-30.0
sbag1
(g16
g3
Ntp215
Rp216
(dp217
g20
F0.9996380805969238
sg21
F368.5
sg22
F85.5
sg23
I-1
sg24
I-1
sg25
I283
sg26
F0.9994478821754456
sg13
I83
sg27
I227
sg28
I93
sg29
g30
sg31
g30
sg32
F134.5
sg33
g30
sg34
F51.5
sbag1
(g16
g3
Ntp218
Rp219
(dp220
g20
F0.9417179822921753
sg21
F344.5
sg22
F81.5
sg23
I-1
sg24
I-1
sg25
I263
sg26
F0.9417179822921753
sg13
I68
sg27
I213
sg28
I139
sg29
g30
sg31
g30
sg32
F173.0
sg33
g30
sg34
F105.0
sbag1
(g16
g3
Ntp221
Rp222
(dp223
g20
F0.488692045211792
sg21
F196.0
sg22
F124.0
sg23
I-1
sg24
I-1
sg25
I72
sg26
F0.488692045211792
sg13
I18
sg27
I160
sg28
I353
sg29
g30
sg31
g30
sg32
F362.0
sg33
g30
sg34
F344.0
sbasg53
g9
sg25
I-1
sg54
g9
sbag1
(g2
g3
Ntp224
Rp225
(dp226
g7
I-1
sg8
g9
sg10
I6
sg11
S'12dpm_libx264/frames_tensorbox/000007.jpg'
p227
sg13
I-1
sg14
(lp228
g1
(g16
g3
Ntp229
Rp230
(dp231
g20
F0.8444347381591797
sg21
F208.5
sg22
F123.5
sg23
I-1
sg24
I-1
sg25
I85
sg26
F0.8444347381591797
sg13
I26
sg27
I166
sg28
I376
sg29
g30
sg31
g30
sg32
F389.0
sg33
g30
sg34
F363.0
sbag1
(g16
g3
Ntp232
Rp233
(dp234
g20
F0.992608368396759
sg21
F264.5
sg22
F97.5
sg23
I-1
sg24
I-1
sg25
I167
sg26
F0.992608368396759
sg13
I44
sg27
I181
sg28
I211
sg29
g30
sg31
g30
sg32
F233.0
sg33
g30
sg34
F189.0
sbag1
(g16
g3
Ntp235
Rp236
(dp237
g20
F0.9909618496894836
sg21
F285.5
sg22
F100.5
sg23
I-1
sg24
I-1
sg25
I185
sg26
F0.9907855987548828
sg13
I49
sg27
I193
sg28
I167
sg29
g30
sg31
g30
sg32
F191.5
sg33
g30
sg34
F142.5
sbag1
(g16
g3
Ntp238
Rp239
(dp240
g20
F0.9870119690895081
sg21
F228.5
sg22
F109.5
sg23
I-1
sg24
I-1
sg25
I119
sg26
F0.9860370755195618
sg13
I35
sg27
I169
sg28
I292
sg29
g30
sg31
g30
sg32
F309.5
sg33
g30
sg34
F274.5
sbag1
(g16
g3
Ntp241
Rp242
(dp243
g20
F0.9415050745010376
sg21
F276.0
sg22
F110.0
sg23
I-1
sg24
I-1
sg25
I166
sg26
F0.9284716844558716
sg13
I47
sg27
I193
sg28
I158
sg29
g30
sg31
g30
sg32
F181.5
sg33
g30
sg34
F134.5
sbag1
(g16
g3
Ntp244
Rp245
(dp246
g20
F0.9863262176513672
sg21
F366.0
sg22
F88.0
sg23
I-1
sg24
I-1
sg25
I278
sg26
F0.9217720031738281
sg13
I80
sg27
I227
sg28
I11
sg29
g30
sg31
g30
sg32
F51.0
sg33
g30
sg34
F-29.0
sbag1
(g16
g3
Ntp247
Rp248
(dp249
g20
F0.9996238946914673
sg21
F383.5
sg22
F84.5
sg23
I-1
sg24
I-1
sg25
I299
sg26
F0.9995515942573547
sg13
I87
sg27
I234
sg28
I86
sg29
g30
sg31
g30
sg32
F129.5
sg33
g30
sg34
F42.5
sbasg53
g9
sg25
I-1
sg54
g9
sbag1
(g2
g3
Ntp250
Rp251
(dp252
g7
I-1
sg8
g9
sg10
I7
sg11
S'12dpm_libx264/frames_tensorbox/000008.jpg'
p253
sg13
I-1
sg14
(lp254
g1
(g16
g3
Ntp255
Rp256
(dp257
g20
F0.992395281791687
sg21
F265.0
sg22
F95.0
sg23
I-1
sg24
I-1
sg25
I170
sg26
F0.992395281791687
sg13
I46
sg27
I180
sg28
I212
sg29
g30
sg31
g30
sg32
F235.0
sg33
g30
sg34
F189.0
sbag1
(g16
g3
Ntp258
Rp259
(dp260
g20
F0.9897884130477905
sg21
F227.5
sg22
F110.5
sg23
I-1
sg24
I-1
sg25
I117
sg26
F0.9587371945381165
sg13
I32
sg27
I169
sg28
I290
sg29
g30
sg31
g30
sg32
F306.0
sg33
g30
sg34
F274.0
sbag1
(g16
g3
Ntp261
Rp262
(dp263
g20
F0.8415838479995728
sg21
F208.0
sg22
F122.0
sg23
I-1
sg24
I-1
sg25
I86
sg26
F0.8407652974128723
sg13
I26
sg27
I165
sg28
I381
sg29
g30
sg31
g30
sg32
F394.0
sg33
g30
sg34
F368.0
sbag1
(g16
g3
Ntp264
Rp265
(dp266
g20
F0.9888550639152527
sg21
F280.0
sg22
F102.0
sg23
I-1
sg24
I-1
sg25
I178
sg26
F0.9644511342048645
sg13
I50
sg27
I191
sg28
I166
sg29
g30
sg31
g30
sg32
F191.0
sg33
g30
sg34
F141.0
sbag1
(g16
g3
Ntp267
Rp268
(dp269
g20
F0.9951720833778381
sg21
F286.5
sg22
F101.5
sg23
I-1
sg24
I-1
sg25
I185
sg26
F0.9949253797531128
sg13
I51
sg27
I194
sg28
I163
sg29
g30
sg31
g30
sg32
F188.5
sg33
g30
sg34
F137.5
sbag1
(g16
g3
Ntp270
Rp271
(dp272
g20
F0.9989219903945923
sg21
F365.5
sg22
F88.5
sg23
I-1
sg24
I-1
sg25
I277
sg26
F0.9975565671920776
sg13
I80
sg27
I227
sg28
I16
sg29
g30
sg31
g30
sg32
F56.0
sg33
g30
sg34
F-24.0
sbag1
(g16
g3
Ntp273
Rp274
(dp275
g20
F0.9995895028114319
sg21
F388.0
sg22
F86.0
sg23
I-1
sg24
I-1
sg25
I302
sg26
F0.9993991851806641
sg13
I87
sg27
I237
sg28
I81
sg29
g30
sg31
g30
sg32
F124.5
sg33
g30
sg34
F37.5
sbag1
(g16
g3
Ntp276
Rp277
(dp278
g20
F0.578154981136322
sg21
F179.0
sg22
F119.0
sg23
I-1
sg24
I-1
sg25
I60
sg26
F0.578154981136322
sg13
I14
sg27
I149
sg28
I376
sg29
g30
sg31
g30
sg32
F383.0
sg33
g30
sg34
F369.0
sbasg53
g9
sg25
I-1
sg54
g9
sbag1
(g2
g3
Ntp279
Rp280
(dp281
g7
I-1
sg8
g9
sg10
I8
sg11
S'12dpm_libx264/frames_tensorbox/000009.jpg'
p282
sg13
I-1
sg14
(lp283
g1
(g16
g3
Ntp284
Rp285
(dp286
g20
F0.8643632531166077
sg21
F210.0
sg22
F124.0
sg23
I-1
sg24
I-1
sg25
I86
sg26
F0.8643632531166077
sg13
I25
sg27
I167
sg28
I382
sg29
g30
sg31
g30
sg32
F394.5
sg33
g30
sg34
F369.5
sbag1
(g16
g3
Ntp287
Rp288
(dp289
g20
F0.990691065788269
sg21
F228.5
sg22
F113.5
sg23
I-1
sg24
I-1
sg25
I115
sg26
F0.8920680284500122
sg13
I33
sg27
I171
sg28
I290
sg29
g30
sg31
g30
sg32
F306.5
sg33
g30
sg34
F273.5
sbag1
(g16
g3
Ntp290
Rp291
(dp292
g20
F0.9940622448921204
sg21
F275.5
sg22
F104.5
sg23
I-1
sg24
I-1
sg25
I171
sg26
F0.9922395944595337
sg13
I48
sg27
I190
sg28
I167
sg29
g30
sg31
g30
sg32
F191.0
sg33
g30
sg34
F143.0
sbag1
(g16
g3
Ntp293
Rp294
(dp295
g20
F0.9954948425292969
sg21
F286.0
sg22
F104.0
sg23
I-1
sg24
I-1
sg25
I182
sg26
F0.9938357472419739
sg13
I52
sg27
I195
sg28
I164
sg29
g30
sg31
g30
sg32
F190.0
sg33
g30
sg34
F138.0
sbag1
(g16
g3
Ntp296
Rp297
(dp298
g20
F0.9995064735412598
sg21
F394.5
sg22
F85.5
sg23
I-1
sg24
I-1
sg25
I309
sg26
F0.9992592930793762
sg13
I87
sg27
I240
sg28
I76
sg29
g30
sg31
g30
sg32
F119.5
sg33
g30
sg34
F32.5
sbag1
(g16
g3
Ntp299
Rp300
(dp301
g20
F0.9951696991920471
sg21
F276.5
sg22
F97.5
sg23
I-1
sg24
I-1
sg25
I179
sg26
F0.9950360655784607
sg13
I53
sg27
I187
sg28
I211
sg29
g30
sg31
g30
sg32
F237.5
sg33
g30
sg34
F184.5
sbag1
(g16
g3
Ntp302
Rp303
(dp304
g20
F0.9689647555351257
sg21
F370.0
sg22
F96.0
sg23
I-1
sg24
I-1
sg25
I274
sg26
F0.9640884399414062
sg13
I74
sg27
I233
sg28
I18
sg29
g30
sg31
g30
sg32
F55.0
sg33
g30
sg34
F-19.0
sbag1
(g16
g3
Ntp305
Rp306
(dp307
g20
F0.7149620652198792
sg21
F189.0
sg22
F123.0
sg23
I-1
sg24
I-1
sg25
I66
sg26
F0.7149620652198792
sg13
I15
sg27
I156
sg28
I375
sg29
g30
sg31
g30
sg32
F382.5
sg33
g30
sg34
F367.5
sbasg53
g9
sg25
I-1
sg54
g9
sbag1
(g2
g3
Ntp308
Rp309
(dp310
g7
I-1
sg8
g9
sg10
I9
sg11
S'12dpm_libx264/frames_tensorbox/000010.jpg'
p311
sg13
I-1
sg14
(lp312
g1
(g16
g3
Ntp313
Rp314
(dp315
g20
F0.9905276298522949
sg21
F226.5
sg22
F115.5
sg23
I-1
sg24
I-1
sg25
I111
sg26
F0.9866999387741089
sg13
I33
sg27
I171
sg28
I293
sg29
g30
sg31
g30
sg32
F309.5
sg33
g30
sg34
F276.5
sbag1
(g16
g3
Ntp316
Rp317
(dp318
g20
F0.9953222870826721
sg21
F277.0
sg22
F103.0
sg23
I-1
sg24
I-1
sg25
I174
sg26
F0.9951936602592468
sg13
I51
sg27
I190
sg28
I217
sg29
g30
sg31
g30
sg32
F242.5
sg33
g30
sg34
F191.5
sbag1
(g16
g3
Ntp319
Rp320
(dp321
g20
F0.9961733222007751
sg21
F286.0
sg22
F108.0
sg23
I-1
sg24
I-1
sg25
I178
sg26
F0.9956580400466919
sg13
I50
sg27
I197
sg28
I165
sg29
g30
sg31
g30
sg32
F190.0
sg33
g30
sg34
F140.0
sbag1
(g16
g3
Ntp322
Rp323
(dp324
g20
F0.9946826100349426
sg21
F378.5
sg22
F101.5
sg23
I-1
sg24
I-1
sg25
I277
sg26
F0.9409715533256531
sg13
I82
sg27
I240
sg28
I15
sg29
g30
sg31
g30
sg32
F56.0
sg33
g30
sg34
F-26.0
sbag1
(g16
g3
Ntp325
Rp326
(dp327
g20
F0.9912971258163452
sg21
F280.0
sg22
F98.0
sg23
I-1
sg24
I-1
sg25
I182
sg26
F0.9878787398338318
sg13
I48
sg27
I189
sg28
I181
sg29
g30
sg31
g30
sg32
F205.0
sg33
g30
sg34
F157.0
sbag1
(g16
g3
Ntp328
Rp329
(dp330
g20
F0.9996628761291504
sg21
F401.5
sg22
F82.5
sg23
I-1
sg24
I-1
sg25
I319
sg26
F0.9996429681777954
sg13
I90
sg27
I242
sg28
I76
sg29
g30
sg31
g30
sg32
F121.0
sg33
g30
sg34
F31.0
sbag1
(g16
g3
Ntp331
Rp332
(dp333
g20
F0.21657131612300873
sg21
F206.0
sg22
F130.0
sg23
I-1
sg24
I-1
sg25
I76
sg26
F0.21657131612300873
sg13
I21
sg27
I168
sg28
I368
sg29
g30
sg31
g30
sg32
F378.5
sg33
g30
sg34
F357.5
sbasg53
g9
sg25
I-1
sg54
g9
sbag1
(g2
g3
Ntp334
Rp335
(dp336
g7
I-1
sg8
g9
sg10
I10
sg11
S'12dpm_libx264/frames_tensorbox/000011.jpg'
p337
sg13
I-1
sg14
(lp338
g1
(g16
g3
Ntp339
Rp340
(dp341
g20
F0.9880619049072266
sg21
F233.5
sg22
F116.5
sg23
I-1
sg24
I-1
sg25
I117
sg26
F0.9880619049072266
sg13
I32
sg27
I175
sg28
I291
sg29
g30
sg31
g30
sg32
F307.0
sg33
g30
sg34
F275.0
sbag1
(g16
g3
Ntp342
Rp343
(dp344
g20
F0.9949060678482056
sg21
F280.0
sg22
F104.0
sg23
I-1
sg24
I-1
sg25
I176
sg26
F0.9931001663208008
sg13
I48
sg27
I192
sg28
I214
sg29
g30
sg31
g30
sg32
F238.0
sg33
g30
sg34
F190.0
sbag1
(g16
g3
Ntp345
Rp346
(dp347
g20
F0.9937193393707275
sg21
F285.0
sg22
F109.0
sg23
I-1
sg24
I-1
sg25
I176
sg26
F0.8792438507080078
sg13
I47
sg27
I197
sg28
I169
sg29
g30
sg31
g30
sg32
F192.5
sg33
g30
sg34
F145.5
sbag1
(g16
g3
Ntp348
Rp349
(dp350
g20
F0.9533821940422058
sg21
F386.5
sg22
F89.5
sg23
I-1
sg24
I-1
sg25
I297
sg26
F0.9533821940422058
sg13
I87
sg27
I238
sg28
I37
sg29
g30
sg31
g30
sg32
F80.5
sg33
g30
sg34
F-6.5
sbag1
(g16
g3
Ntp351
Rp352
(dp353
g20
F0.9943236112594604
sg21
F289.5
sg22
F112.5
sg23
I-1
sg24
I-1
sg25
I177
sg26
F0.9906787276268005
sg13
I50
sg27
I201
sg28
I166
sg29
g30
sg31
g30
sg32
F191.0
sg33
g30
sg34
F141.0
sbag1
(g16
g3
Ntp354
Rp355
(dp356
g20
F0.6613358855247498
sg21
F217.0
sg22
F125.0
sg23
I-1
sg24
I-1
sg25
I92
sg26
F0.6613358855247498
sg13
I26
sg27
I171
sg28
I368
sg29
g30
sg31
g30
sg32
F381.0
sg33
g30
sg34
F355.0
sbag1
(g16
g3
Ntp357
Rp358
(dp359
g20
F0.24797551333904266
sg21
F208.0
sg22
F130.0
sg23
I-1
sg24
I-1
sg25
I78
sg26
F0.24797551333904266
sg13
I20
sg27
I169
sg28
I349
sg29
g30
sg31
g30
sg32
F359.0
sg33
g30
sg34
F339.0
sbag1
(g16
g3
Ntp360
Rp361
(dp362
g20
F0.9991874098777771
sg21
F407.5
sg22
F84.5
sg23
I-1
sg24
I-1
sg25
I323
sg26
F0.9991874098777771
sg13
I92
sg27
I246
sg28
I69
sg29
g30
sg31
g30
sg32
F115.0
sg33
g30
sg34
F23.0
sbasg53
g9
sg25
I-1
sg54
g9
sbag1
(g2
g3
Ntp363
Rp364
(dp365
g7
I-1
sg8
g9
sg10
I11
sg11
S'12dpm_libx264/frames_tensorbox/000012.jpg'
p366
sg13
I-1
sg14
(lp367
g1
(g16
g3
Ntp368
Rp369
(dp370
g20
F0.9868075251579285
sg21
F233.0
sg22
F119.0
sg23
I-1
sg24
I-1
sg25
I114
sg26
F0.986041247844696
sg13
I31
sg27
I176
sg28
I298
sg29
g30
sg31
g30
sg32
F313.5
sg33
g30
sg34
F282.5
sbag1
(g16
g3
Ntp371
Rp372
(dp373
g20
F0.9951868653297424
sg21
F289.5
sg22
F110.5
sg23
I-1
sg24
I-1
sg25
I179
sg26
F0.9947665929794312
sg13
I51
sg27
I200
sg28
I164
sg29
g30
sg31
g30
sg32
F189.5
sg33
g30
sg34
F138.5
sbag1
(g16
g3
Ntp374
Rp375
(dp376
g20
F0.992875337600708
sg21
F285.5
sg22
F102.5
sg23
I-1
sg24
I-1
sg25
I183
sg26
F0.992380678653717
sg13
I45
sg27
I194
sg28
I219
sg29
g30
sg31
g30
sg32
F241.5
sg33
g30
sg34
F196.5
sbag1
(g16
g3
Ntp377
Rp378
(dp379
g20
F0.9001333117485046
sg21
F277.5
sg22
F110.5
sg23
I-1
sg24
I-1
sg25
I167
sg26
F0.9001333117485046
sg13
I48
sg27
I194
sg28
I169
sg29
g30
sg31
g30
sg32
F193.0
sg33
g30
sg34
F145.0
sbag1
(g16
g3
Ntp380
Rp381
(dp382
g20
F0.9998301267623901
sg21
F410.0
sg22
F86.0
sg23
I-1
sg24
I-1
sg25
I324
sg26
F0.9997696280479431
sg13
I99
sg27
I248
sg28
I69
sg29
g30
sg31
g30
sg32
F118.5
sg33
g30
sg34
F19.5
sbasg53
g9
sg25
I-1
sg54
g9
sbag1
(g2
g3
Ntp383
Rp384
(dp385
g7
I-1
sg8
g9
sg10
I12
sg11
S'12dpm_libx264/frames_tensorbox/000013.jpg'
p386
sg13
I-1
sg14
(lp387
g1
(g16
g3
Ntp388
Rp389
(dp390
g20
F0.9900179505348206
sg21
F233.5
sg22
F120.5
sg23
I-1
sg24
I-1
sg25
I113
sg26
F0.9853609204292297
sg13
I31
sg27
I177
sg28
I298
sg29
g30
sg31
g30
sg32
F313.5
sg33
g30
sg34
F282.5
sbag1
(g16
g3
Ntp391
Rp392
(dp393
g20
F0.9955540299415588
sg21
F295.5
sg22
F108.5
sg23
I-1
sg24
I-1
sg25
I187
sg26
F0.9955182671546936
sg13
I55
sg27
I202
sg28
I163
sg29
g30
sg31
g30
sg32
F190.5
sg33
g30
sg34
F135.5
sbag1
(g16
g3
Ntp394
Rp395
(dp396
g20
F0.9906253814697266
sg21
F284.0
sg22
F110.0
sg23
I-1
sg24
I-1
sg25
I174
sg26
F0.989087700843811
sg13
I43
sg27
I197
sg28
I220
sg29
g30
sg31
g30
sg32
F241.5
sg33
g30
sg34
F198.5
sbag1
(g16
g3
Ntp397
Rp398
(dp399
g20
F0.9998143315315247
sg21
F413.5
sg22
F88.5
sg23
I-1
sg24
I-1
sg25
I325
sg26
F0.9997326731681824
sg13
I100
sg27
I251
sg28
I63
sg29
g30
sg31
g30
sg32
F113.0
sg33
g30
sg34
F13.0
sbag1
(g16
g3
Ntp400
Rp401
(dp402
g20
F0.6955333352088928
sg21
F197.0
sg22
F135.0
sg23
I-1
sg24
I-1
sg25
I62
sg26
F0.6955333352088928
sg13
I19
sg27
I166
sg28
I398
sg29
g30
sg31
g30
sg32
F407.5
sg33
g30
sg34
F388.5
sbag1
(g16
g3
Ntp403
Rp404
(dp405
g20
F0.59427410364151
sg21
F275.0
sg22
F117.0
sg23
I-1
sg24
I-1
sg25
I158
sg26
F0.59427410364151
sg13
I46
sg27
I196
sg28
I161
sg29
g30
sg31
g30
sg32
F184.0
sg33
g30
sg34
F138.0
sbag1
(g16
g3
Ntp406
Rp407
(dp408
g20
F0.32657504081726074
sg21
F178.5
sg22
F135.5
sg23
I-1
sg24
I-1
sg25
I43
sg26
F0.32657504081726074
sg13
I9
sg27
I157
sg28
I390
sg29
g30
sg31
g30
sg32
F394.5
sg33
g30
sg34
F385.5
sbasg53
g9
sg25
I-1
sg54
g9
sbag1
(g2
g3
Ntp409
Rp410
(dp411
g7
I-1
sg8
g9
sg10
I13
sg11
S'12dpm_libx264/frames_tensorbox/000014.jpg'
p412
sg13
I-1
sg14
(lp413
g1
(g16
g3
Ntp414
Rp415
(dp416
g20
F0.9815754890441895
sg21
F284.5
sg22
F109.5
sg23
I-1
sg24
I-1
sg25
I175
sg26
F0.9815754890441895
sg13
I50
sg27
I197
sg28
I206
sg29
g30
sg31
g30
sg32
F231.0
sg33
g30
sg34
F181.0
sbag1
(g16
g3
Ntp417
Rp418
(dp419
g20
F0.9878540635108948
sg21
F233.0
sg22
F121.0
sg23
I-1
sg24
I-1
sg25
I112
sg26
F0.9760549068450928
sg13
I30
sg27
I177
sg28
I299
sg29
g30
sg31
g30
sg32
F314.0
sg33
g30
sg34
F284.0
sbag1
(g16
g3
Ntp420
Rp421
(dp422
g20
F0.9946693778038025
sg21
F292.5
sg22
F111.5
sg23
I-1
sg24
I-1
sg25
I181
sg26
F0.9898008704185486
sg13
I51
sg27
I202
sg28
I168
sg29
g30
sg31
g30
sg32
F193.5
sg33
g30
sg34
F142.5
sbag1
(g16
g3
Ntp423
Rp424
(dp425
g20
F0.9998457431793213
sg21
F424.0
sg22
F86.0
sg23
I-1
sg24
I-1
sg25
I338
sg26
F0.9998157620429993
sg13
I103
sg27
I255
sg28
I61
sg29
g30
sg31
g30
sg32
F112.5
sg33
g30
sg34
F9.5
sbag1
(g16
g3
Ntp426
Rp427
(dp428
g20
F0.46776312589645386
sg21
F281.5
sg22
F118.5
sg23
I-1
sg24
I-1
sg25
I163
sg26
F0.46776312589645386
sg13
I46
sg27
I200
sg28
I158
sg29
g30
sg31
g30
sg32
F181.0
sg33
g30
sg34
F135.0
sbasg53
g9
sg25
I-1
sg54
g9
sbag1
(g2
g3
Ntp429
Rp430
(dp431
g7
I-1
sg8
g9
sg10
I14
sg11
S'12dpm_libx264/frames_tensorbox/000015.jpg'
p432
sg13
I-1
sg14
(lp433
g1
(g16
g3
Ntp434
Rp435
(dp436
g20
F0.9854780435562134
sg21
F238.5
sg22
F123.5
sg23
I-1
sg24
I-1
sg25
I115
sg26
F0.9679877758026123
sg13
I29
sg27
I181
sg28
I300
sg29
g30
sg31
g30
sg32
F314.5
sg33
g30
sg34
F285.5
sbag1
(g16
g3
Ntp437
Rp438
(dp439
g20
F0.9955722093582153
sg21
F296.5
sg22
F113.5
sg23
I-1
sg24
I-1
sg25
I183
sg26
F0.9955722093582153
sg13
I50
sg27
I205
sg28
I217
sg29
g30
sg31
g30
sg32
F242.0
sg33
g30
sg34
F192.0
sbag1
(g16
g3
Ntp440
Rp441
(dp442
g20
F0.9971864819526672
sg21
F300.5
sg22
F113.5
sg23
I-1
sg24
I-1
sg25
I187
sg26
F0.9920669794082642
sg13
I53
sg27
I207
sg28
I168
sg29
g30
sg31
g30
sg32
F194.5
sg33
g30
sg34
F141.5
sbag1
(g16
g3
Ntp443
Rp444
(dp445
g20
F0.9958809614181519
sg21
F302.5
sg22
F115.5
sg23
I-1
sg24
I-1
sg25
I187
sg26
F0.8937240242958069
sg13
I52
sg27
I209
sg28
I161
sg29
g30
sg31
g30
sg32
F187.0
sg33
g30
sg34
F135.0
sbag1
(g16
g3
Ntp446
Rp447
(dp448
g20
F0.9998317956924438
sg21
F431.5
sg22
F86.5
sg23
I-1
sg24
I-1
sg25
I345
sg26
F0.9997991919517517
sg13
I107
sg27
I259
sg28
I59
sg29
g30
sg31
g30
sg32
F112.5
sg33
g30
sg34
F5.5
sbag1
(g16
g3
Ntp449
Rp450
(dp451
g20
F0.6887612342834473
sg21
F242.5
sg22
F127.5
sg23
I-1
sg24
I-1
sg25
I115
sg26
F0.6887612342834473
sg13
I32
sg27
I185
sg28
I336
sg29
g30
sg31
g30
sg32
F352.0
sg33
g30
sg34
F320.0
sbasg53
g9
sg25
I-1
sg54
g9
sbag1
(g2
g3
Ntp452
Rp453
(dp454
g7
I-1
sg8
g9
sg10
I15
sg11
S'12dpm_libx264/frames_tensorbox/000016.jpg'
p455
sg13
I-1
sg14
(lp456
g1
(g16
g3
Ntp457
Rp458
(dp459
g20
F0.990100085735321
sg21
F239.0
sg22
F127.0
sg23
I-1
sg24
I-1
sg25
I112
sg26
F0.9765217304229736
sg13
I30
sg27
I183
sg28
I299
sg29
g30
sg31
g30
sg32
F314.0
sg33
g30
sg34
F284.0
sbag1
(g16
g3
Ntp460
Rp461
(dp462
g20
F0.9970321655273438
sg21
F301.5
sg22
F112.5
sg23
I-1
sg24
I-1
sg25
I189
sg26
F0.9939109086990356
sg13
I54
sg27
I207
sg28
I167
sg29
g30
sg31
g30
sg32
F194.0
sg33
g30
sg34
F140.0
sbag1
(g16
g3
Ntp463
Rp464
(dp465
g20
F0.8873143792152405
sg21
F297.0
sg22
F119.0
sg23
I-1
sg24
I-1
sg25
I178
sg26
F0.8873143792152405
sg13
I52
sg27
I208
sg28
I162
sg29
g30
sg31
g30
sg32
F188.0
sg33
g30
sg34
F136.0
sbag1
(g16
g3
Ntp466
Rp467
(dp468
g20
F0.9944291114807129
sg21
F297.0
sg22
F119.0
sg23
I-1
sg24
I-1
sg25
I178
sg26
F0.9942996501922607
sg13
I53
sg27
I208
sg28
I222
sg29
g30
sg31
g30
sg32
F248.5
sg33
g30
sg34
F195.5
sbag1
(g16
g3
Ntp469
Rp470
(dp471
g20
F0.9998657703399658
sg21
F440.0
sg22
F88.0
sg23
I-1
sg24
I-1
sg25
I352
sg26
F0.9997246861457825
sg13
I112
sg27
I264
sg28
I56
sg29
g30
sg31
g30
sg32
F112.0
sg33
g30
sg34
F0.0
sbasg53
g9
sg25
I-1
sg54
g9
sbag1
(g2
g3
Ntp472
Rp473
(dp474
g7
I-1
sg8
g9
sg10
I16
sg11
S'12dpm_libx264/frames_tensorbox/000017.jpg'
p475
sg13
I-1
sg14
(lp476
g1
(g16
g3
Ntp477
Rp478
(dp479
g20
F0.992572546005249
sg21
F241.0
sg22
F127.0
sg23
I-1
sg24
I-1
sg25
I114
sg26
F0.9714445471763611
sg13
I30
sg27
I184
sg28
I300
sg29
g30
sg31
g30
sg32
F315.0
sg33
g30
sg34
F285.0
sbag1
(g16
g3
Ntp480
Rp481
(dp482
g20
F0.9972631931304932
sg21
F302.0
sg22
F112.0
sg23
I-1
sg24
I-1
sg25
I190
sg26
F0.9962852001190186
sg13
I54
sg27
I207
sg28
I164
sg29
g30
sg31
g30
sg32
F191.0
sg33
g30
sg34
F137.0
sbag1
(g16
g3
Ntp483
Rp484
(dp485
g20
F0.9938490986824036
sg21
F301.0
sg22
F121.0
sg23
I-1
sg24
I-1
sg25
I180
sg26
F0.9935969114303589
sg13
I52
sg27
I211
sg28
I221
sg29
g30
sg31
g30
sg32
F247.0
sg33
g30
sg34
F195.0
sbag1
(g16
g3
Ntp486
Rp487
(dp488
g20
F0.999874472618103
sg21
F448.0
sg22
F88.0
sg23
I-1
sg24
I-1
sg25
I360
sg26
F0.9997655749320984
sg13
I115
sg27
I268
sg28
I51
sg29
g30
sg31
g30
sg32
F108.5
sg33
g30
sg34
F-6.5
sbag1
(g16
g3
Ntp489
Rp490
(dp491
g20
F0.41350457072257996
sg21
F198.5
sg22
F143.5
sg23
I-1
sg24
I-1
sg25
I55
sg26
F0.41350457072257996
sg13
I17
sg27
I171
sg28
I442
sg29
g30
sg31
g30
sg32
F450.5
sg33
g30
sg34
F433.5
sbag1
(g16
g3
Ntp492
Rp493
(dp494
g20
F0.48064664006233215
sg21
F297.5
sg22
F118.5
sg23
I-1
sg24
I-1
sg25
I179
sg26
F0.48064664006233215
sg13
I53
sg27
I208
sg28
I167
sg29
g30
sg31
g30
sg32
F193.5
sg33
g30
sg34
F140.5
sbasg53
g9
sg25
I-1
sg54
g9
sbag1
(g2
g3
Ntp495
Rp496
(dp497
g7
I-1
sg8
g9
sg10
I17
sg11
S'12dpm_libx264/frames_tensorbox/000018.jpg'
p498
sg13
I-1
sg14
(lp499
g1
(g16
g3
Ntp500
Rp501
(dp502
g20
F0.9924173355102539
sg21
F244.0
sg22
F128.0
sg23
I-1
sg24
I-1
sg25
I116
sg26
F0.9675796627998352
sg13
I31
sg27
I186
sg28
I300
sg29
g30
sg31
g30
sg32
F315.5
sg33
g30
sg34
F284.5
sbag1
(g16
g3
Ntp503
Rp504
(dp505
g20
F0.9976704716682434
sg21
F307.5
sg22
F112.5
sg23
I-1
sg24
I-1
sg25
I195
sg26
F0.9963662624359131
sg13
I56
sg27
I210
sg28
I163
sg29
g30
sg31
g30
sg32
F191.0
sg33
g30
sg34
F135.0
sbag1
(g16
g3
Ntp506
Rp507
(dp508
g20
F0.9929325580596924
sg21
F305.5
sg22
F126.5
sg23
I-1
sg24
I-1
sg25
I179
sg26
F0.9925864338874817
sg13
I51
sg27
I216
sg28
I218
sg29
g30
sg31
g30
sg32
F243.5
sg33
g30
sg34
F192.5
sbag1
(g16
g3
Ntp509
Rp510
(dp511
g20
F0.9998390674591064
sg21
F452.5
sg22
F93.5
sg23
I-1
sg24
I-1
sg25
I359
sg26
F0.9997372031211853
sg13
I113
sg27
I273
sg28
I48
sg29
g30
sg31
g30
sg32
F104.5
sg33
g30
sg34
F-8.5
sbag1
(g16
g3
Ntp512
Rp513
(dp514
g20
F0.6772885322570801
sg21
F293.5
sg22
F120.5
sg23
I-1
sg24
I-1
sg25
I173
sg26
F0.6772885322570801
sg13
I50
sg27
I207
sg28
I177
sg29
g30
sg31
g30
sg32
F202.0
sg33
g30
sg34
F152.0
sbasg53
g9
sg25
I-1
sg54
g9
sba.