(lp0
ccopy_reg
_reconstructor
p1
(cframe
Frame_Info
p2
c__builtin__
object
p3
Ntp4
Rp5
(dp6
S'num_obj'
p7
I-1
sS'default_path'
p8
S'Not Set'
p9
sS'frame'
p10
I0
sS'filename'
p11
S'PETS2017/frames_tensorbox/000001.jpg'
p12
sS'width'
p13
I-1
sS'rects'
p14
(lp15
g1
(cmulticlass_rectangle
Rectangle_Multiclass
p16
g3
Ntp17
Rp18
(dp19
S'confidence'
p20
F0.8933507204055786
sS'y2'
p21
F182.5
sS'y1'
p22
F157.5
sS'trackID'
p23
I-1
sS'label_confidence'
p24
I-1
sS'height'
p25
I25
sS'true_confidence'
p26
F0.8933507204055786
sg13
I12
sS'cy'
p27
I170
sS'cx'
p28
I18
sS'label_code'
p29
S'Not Set'
p30
sS'label'
p31
g30
sS'x2'
p32
F24.0
sS'label_chall'
p33
g30
sS'x1'
p34
F12.0
sbag1
(g16
g3
Ntp35
Rp36
(dp37
g20
F0.8482012152671814
sg21
F183.5
sg22
F124.5
sg23
I-1
sg24
I-1
sg25
I59
sg26
F0.8482012152671814
sg13
I21
sg27
I154
sg28
I464
sg29
g30
sg31
g30
sg32
F474.5
sg33
g30
sg34
F453.5
sbag1
(g16
g3
Ntp38
Rp39
(dp40
g20
F0.9575476050376892
sg21
F205.0
sg22
F151.0
sg23
I-1
sg24
I-1
sg25
I54
sg26
F0.9575476050376892
sg13
I23
sg27
I178
sg28
I159
sg29
g30
sg31
g30
sg32
F170.5
sg33
g30
sg34
F147.5
sbasS'folder'
p41
g9
sg25
I-1
sS'dataset_path'
p42
g9
sbag1
(g2
g3
Ntp43
Rp44
(dp45
g7
I-1
sg8
g9
sg10
I1
sg11
S'PETS2017/frames_tensorbox/000002.jpg'
p46
sg13
I-1
sg14
(lp47
g1
(g16
g3
Ntp48
Rp49
(dp50
g20
F0.840083122253418
sg21
F182.0
sg22
F160.0
sg23
I-1
sg24
I-1
sg25
I22
sg26
F0.840083122253418
sg13
I12
sg27
I171
sg28
I16
sg29
g30
sg31
g30
sg32
F22.0
sg33
g30
sg34
F10.0
sbag1
(g16
g3
Ntp51
Rp52
(dp53
g20
F0.9794098138809204
sg21
F205.5
sg22
F152.5
sg23
I-1
sg24
I-1
sg25
I53
sg26
F0.9386598467826843
sg13
I22
sg27
I179
sg28
I154
sg29
g30
sg31
g30
sg32
F165.0
sg33
g30
sg34
F143.0
sbag1
(g16
g3
Ntp54
Rp55
(dp56
g20
F0.7519504427909851
sg21
F237.0
sg22
F165.0
sg23
I-1
sg24
I-1
sg25
I72
sg26
F0.7519504427909851
sg13
I27
sg27
I201
sg28
I306
sg29
g30
sg31
g30
sg32
F319.5
sg33
g30
sg34
F292.5
sbag1
(g16
g3
Ntp57
Rp58
(dp59
g20
F0.6758226156234741
sg21
F187.0
sg22
F127.0
sg23
I-1
sg24
I-1
sg25
I60
sg26
F0.6758226156234741
sg13
I19
sg27
I157
sg28
I460
sg29
g30
sg31
g30
sg32
F469.5
sg33
g30
sg34
F450.5
sbasg41
g9
sg25
I-1
sg42
g9
sbag1
(g2
g3
Ntp60
Rp61
(dp62
g7
I-1
sg8
g9
sg10
I2
sg11
S'PETS2017/frames_tensorbox/000003.jpg'
p63
sg13
I-1
sg14
(lp64
g1
(g16
g3
Ntp65
Rp66
(dp67
g20
F0.8210968375205994
sg21
F174.0
sg22
F148.0
sg23
I-1
sg24
I-1
sg25
I26
sg26
F0.8210968375205994
sg13
I12
sg27
I161
sg28
I19
sg29
g30
sg31
g30
sg32
F25.0
sg33
g30
sg34
F13.0
sbag1
(g16
g3
Ntp68
Rp69
(dp70
g20
F0.9659759998321533
sg21
F208.5
sg22
F153.5
sg23
I-1
sg24
I-1
sg25
I55
sg26
F0.9659759998321533
sg13
I24
sg27
I181
sg28
I152
sg29
g30
sg31
g30
sg32
F164.0
sg33
g30
sg34
F140.0
sbag1
(g16
g3
Ntp71
Rp72
(dp73
g20
F0.7516003847122192
sg21
F237.0
sg22
F165.0
sg23
I-1
sg24
I-1
sg25
I72
sg26
F0.7516003847122192
sg13
I27
sg27
I201
sg28
I306
sg29
g30
sg31
g30
sg32
F319.5
sg33
g30
sg34
F292.5
sbag1
(g16
g3
Ntp74
Rp75
(dp76
g20
F0.6286332607269287
sg21
F185.5
sg22
F126.5
sg23
I-1
sg24
I-1
sg25
I59
sg26
F0.6286332607269287
sg13
I19
sg27
I156
sg28
I460
sg29
g30
sg31
g30
sg32
F469.5
sg33
g30
sg34
F450.5
sbasg41
g9
sg25
I-1
sg42
g9
sbag1
(g2
g3
Ntp77
Rp78
(dp79
g7
I-1
sg8
g9
sg10
I3
sg11
S'PETS2017/frames_tensorbox/000004.jpg'
p80
sg13
I-1
sg14
(lp81
g1
(g16
g3
Ntp82
Rp83
(dp84
g20
F0.8196334838867188
sg21
F174.0
sg22
F150.0
sg23
I-1
sg24
I-1
sg25
I24
sg26
F0.8196334838867188
sg13
I12
sg27
I162
sg28
I19
sg29
g30
sg31
g30
sg32
F25.0
sg33
g30
sg34
F13.0
sbag1
(g16
g3
Ntp85
Rp86
(dp87
g20
F0.8119823336601257
sg21
F144.0
sg22
F108.0
sg23
I-1
sg24
I-1
sg25
I36
sg26
F0.8119823336601257
sg13
I11
sg27
I126
sg28
I232
sg29
g30
sg31
g30
sg32
F237.5
sg33
g30
sg34
F226.5
sbag1
(g16
g3
Ntp88
Rp89
(dp90
g20
F0.8876972794532776
sg21
F182.5
sg22
F161.5
sg23
I-1
sg24
I-1
sg25
I21
sg26
F0.8876972794532776
sg13
I12
sg27
I172
sg28
I15
sg29
g30
sg31
g30
sg32
F21.0
sg33
g30
sg34
F9.0
sbag1
(g16
g3
Ntp91
Rp92
(dp93
g20
F0.8600062131881714
sg21
F209.0
sg22
F153.0
sg23
I-1
sg24
I-1
sg25
I56
sg26
F0.8600062131881714
sg13
I25
sg27
I181
sg28
I151
sg29
g30
sg31
g30
sg32
F163.5
sg33
g30
sg34
F138.5
sbasg41
g9
sg25
I-1
sg42
g9
sbag1
(g2
g3
Ntp94
Rp95
(dp96
g7
I-1
sg8
g9
sg10
I4
sg11
S'PETS2017/frames_tensorbox/000005.jpg'
p97
sg13
I-1
sg14
(lp98
g1
(g16
g3
Ntp99
Rp100
(dp101
g20
F0.8871327042579651
sg21
F183.0
sg22
F161.0
sg23
I-1
sg24
I-1
sg25
I22
sg26
F0.8871327042579651
sg13
I12
sg27
I172
sg28
I16
sg29
g30
sg31
g30
sg32
F22.0
sg33
g30
sg34
F10.0
sbag1
(g16
g3
Ntp102
Rp103
(dp104
g20
F0.8098975419998169
sg21
F209.0
sg22
F153.0
sg23
I-1
sg24
I-1
sg25
I56
sg26
F0.8098975419998169
sg13
I25
sg27
I181
sg28
I151
sg29
g30
sg31
g30
sg32
F163.5
sg33
g30
sg34
F138.5
sbasg41
g9
sg25
I-1
sg42
g9
sbag1
(g2
g3
Ntp105
Rp106
(dp107
g7
I-1
sg8
g9
sg10
I5
sg11
S'PETS2017/frames_tensorbox/000006.jpg'
p108
sg13
I-1
sg14
(lp109
g1
(g16
g3
Ntp110
Rp111
(dp112
g20
F0.8646127581596375
sg21
F181.5
sg22
F158.5
sg23
I-1
sg24
I-1
sg25
I23
sg26
F0.8646127581596375
sg13
I12
sg27
I170
sg28
I16
sg29
g30
sg31
g30
sg32
F22.0
sg33
g30
sg34
F10.0
sbag1
(g16
g3
Ntp113
Rp114
(dp115
g20
F0.836108386516571
sg21
F188.5
sg22
F129.5
sg23
I-1
sg24
I-1
sg25
I59
sg26
F0.836108386516571
sg13
I20
sg27
I159
sg28
I460
sg29
g30
sg31
g30
sg32
F470.0
sg33
g30
sg34
F450.0
sbag1
(g16
g3
Ntp116
Rp117
(dp118
g20
F0.7863430976867676
sg21
F209.5
sg22
F152.5
sg23
I-1
sg24
I-1
sg25
I57
sg26
F0.7863430976867676
sg13
I25
sg27
I181
sg28
I150
sg29
g30
sg31
g30
sg32
F162.5
sg33
g30
sg34
F137.5
sbasg41
g9
sg25
I-1
sg42
g9
sbag1
(g2
g3
Ntp119
Rp120
(dp121
g7
I-1
sg8
g9
sg10
I6
sg11
S'PETS2017/frames_tensorbox/000007.jpg'
p122
sg13
I-1
sg14
(lp123
g1
(g16
g3
Ntp124
Rp125
(dp126
g20
F0.8880004286766052
sg21
F177.0
sg22
F147.0
sg23
I-1
sg24
I-1
sg25
I30
sg26
F0.8880004286766052
sg13
I14
sg27
I162
sg28
I19
sg29
g30
sg31
g30
sg32
F26.0
sg33
g30
sg34
F12.0
sbag1
(g16
g3
Ntp127
Rp128
(dp129
g20
F0.8851045966148376
sg21
F237.5
sg22
F166.5
sg23
I-1
sg24
I-1
sg25
I71
sg26
F0.8851045966148376
sg13
I27
sg27
I202
sg28
I305
sg29
g30
sg31
g30
sg32
F318.5
sg33
g30
sg34
F291.5
sbag1
(g16
g3
Ntp130
Rp131
(dp132
g20
F0.9432525634765625
sg21
F190.0
sg22
F130.0
sg23
I-1
sg24
I-1
sg25
I60
sg26
F0.9432525634765625
sg13
I22
sg27
I160
sg28
I459
sg29
g30
sg31
g30
sg32
F470.0
sg33
g30
sg34
F448.0
sbag1
(g16
g3
Ntp133
Rp134
(dp135
g20
F0.715173602104187
sg21
F138.0
sg22
F104.0
sg23
I-1
sg24
I-1
sg25
I34
sg26
F0.715173602104187
sg13
I10
sg27
I121
sg28
I223
sg29
g30
sg31
g30
sg32
F228.0
sg33
g30
sg34
F218.0
sbag1
(g16
g3
Ntp136
Rp137
(dp138
g20
F0.6428311467170715
sg21
F207.5
sg22
F152.5
sg23
I-1
sg24
I-1
sg25
I55
sg26
F0.6428311467170715
sg13
I25
sg27
I180
sg28
I145
sg29
g30
sg31
g30
sg32
F157.5
sg33
g30
sg34
F132.5
sbasg41
g9
sg25
I-1
sg42
g9
sbag1
(g2
g3
Ntp139
Rp140
(dp141
g7
I-1
sg8
g9
sg10
I7
sg11
S'PETS2017/frames_tensorbox/000008.jpg'
p142
sg13
I-1
sg14
(lp143
g1
(g16
g3
Ntp144
Rp145
(dp146
g20
F0.8963598608970642
sg21
F177.0
sg22
F147.0
sg23
I-1
sg24
I-1
sg25
I30
sg26
F0.8963598608970642
sg13
I13
sg27
I162
sg28
I20
sg29
g30
sg31
g30
sg32
F26.5
sg33
g30
sg34
F13.5
sbag1
(g16
g3
Ntp147
Rp148
(dp149
g20
F0.941307544708252
sg21
F189.5
sg22
F130.5
sg23
I-1
sg24
I-1
sg25
I59
sg26
F0.941307544708252
sg13
I21
sg27
I160
sg28
I458
sg29
g30
sg31
g30
sg32
F468.5
sg33
g30
sg34
F447.5
sbag1
(g16
g3
Ntp150
Rp151
(dp152
g20
F0.7621418237686157
sg21
F137.0
sg22
F105.0
sg23
I-1
sg24
I-1
sg25
I32
sg26
F0.7621418237686157
sg13
I11
sg27
I121
sg28
I222
sg29
g30
sg31
g30
sg32
F227.5
sg33
g30
sg34
F216.5
sbag1
(g16
g3
Ntp153
Rp154
(dp155
g20
F0.7342885732650757
sg21
F237.0
sg22
F165.0
sg23
I-1
sg24
I-1
sg25
I72
sg26
F0.7342885732650757
sg13
I27
sg27
I201
sg28
I306
sg29
g30
sg31
g30
sg32
F319.5
sg33
g30
sg34
F292.5
sbasg41
g9
sg25
I-1
sg42
g9
sbag1
(g2
g3
Ntp156
Rp157
(dp158
g7
I-1
sg8
g9
sg10
I8
sg11
S'PETS2017/frames_tensorbox/000009.jpg'
p159
sg13
I-1
sg14
(lp160
g1
(g16
g3
Ntp161
Rp162
(dp163
g20
F0.9409310221672058
sg21
F187.0
sg22
F157.0
sg23
I-1
sg24
I-1
sg25
I30
sg26
F0.9409310221672058
sg13
I15
sg27
I172
sg28
I17
sg29
g30
sg31
g30
sg32
F24.5
sg33
g30
sg34
F9.5
sbag1
(g16
g3
Ntp164
Rp165
(dp166
g20
F0.8430080413818359
sg21
F189.0
sg22
F129.0
sg23
I-1
sg24
I-1
sg25
I60
sg26
F0.8430080413818359
sg13
I21
sg27
I159
sg28
I457
sg29
g30
sg31
g30
sg32
F467.5
sg33
g30
sg34
F446.5
sbag1
(g16
g3
Ntp167
Rp168
(dp169
g20
F0.8987148404121399
sg21
F205.5
sg22
F152.5
sg23
I-1
sg24
I-1
sg25
I53
sg26
F0.8987148404121399
sg13
I25
sg27
I179
sg28
I144
sg29
g30
sg31
g30
sg32
F156.5
sg33
g30
sg34
F131.5
sbag1
(g16
g3
Ntp170
Rp171
(dp172
g20
F0.764382004737854
sg21
F138.0
sg22
F108.0
sg23
I-1
sg24
I-1
sg25
I30
sg26
F0.764382004737854
sg13
I10
sg27
I123
sg28
I221
sg29
g30
sg31
g30
sg32
F226.0
sg33
g30
sg34
F216.0
sbag1
(g16
g3
Ntp173
Rp174
(dp175
g20
F0.7672679424285889
sg21
F237.0
sg22
F165.0
sg23
I-1
sg24
I-1
sg25
I72
sg26
F0.7672679424285889
sg13
I27
sg27
I201
sg28
I306
sg29
g30
sg31
g30
sg32
F319.5
sg33
g30
sg34
F292.5
sbasg41
g9
sg25
I-1
sg42
g9
sba.