(lp0
ccopy_reg
_reconstructor
p1
(cframe
Frame_Info
p2
c__builtin__
object
p3
Ntp4
Rp5
(dp6
S'num_obj'
p7
I-1
sS'default_path'
p8
S'Not Set'
p9
sS'frame'
p10
I0
sS'filename'
p11
S'TUD-Crossing/frames_tensorbox/000001.jpg'
p12
sS'width'
p13
I-1
sS'rects'
p14
(lp15
g1
(cmulticlass_rectangle
Rectangle_Multiclass
p16
g3
Ntp17
Rp18
(dp19
S'confidence'
p20
F0.9959104061126709
sS'y2'
p21
F364.5
sS'y1'
p22
F179.5
sS'trackID'
p23
I-1
sS'label_confidence'
p24
I-1
sS'height'
p25
I185
sS'true_confidence'
p26
F0.9911419153213501
sg13
I57
sS'cy'
p27
I272
sS'cx'
p28
I112
sS'label_code'
p29
S'Not Set'
p30
sS'label'
p31
g30
sS'x2'
p32
F140.5
sS'label_chall'
p33
g30
sS'x1'
p34
F83.5
sbag1
(g16
g3
Ntp35
Rp36
(dp37
g20
F0.9955615997314453
sg21
F337.0
sg22
F185.0
sg23
I-1
sg24
I-1
sg25
I152
sg26
F0.9825143218040466
sg13
I53
sg27
I261
sg28
I173
sg29
g30
sg31
g30
sg32
F199.5
sg33
g30
sg34
F146.5
sbag1
(g16
g3
Ntp38
Rp39
(dp40
g20
F0.9992924928665161
sg21
F365.0
sg22
F179.0
sg23
I-1
sg24
I-1
sg25
I186
sg26
F0.9989315867424011
sg13
I67
sg27
I272
sg28
I251
sg29
g30
sg31
g30
sg32
F284.5
sg33
g30
sg34
F217.5
sbag1
(g16
g3
Ntp41
Rp42
(dp43
g20
F0.9983493089675903
sg21
F327.0
sg22
F167.0
sg23
I-1
sg24
I-1
sg25
I160
sg26
F0.9982428550720215
sg13
I59
sg27
I247
sg28
I456
sg29
g30
sg31
g30
sg32
F485.5
sg33
g30
sg34
F426.5
sbag1
(g16
g3
Ntp44
Rp45
(dp46
g20
F0.9892464280128479
sg21
F360.5
sg22
F187.5
sg23
I-1
sg24
I-1
sg25
I173
sg26
F0.9849182963371277
sg13
I55
sg27
I274
sg28
I80
sg29
g30
sg31
g30
sg32
F107.5
sg33
g30
sg34
F52.5
sbag1
(g16
g3
Ntp47
Rp48
(dp49
g20
F0.35320255160331726
sg21
F332.0
sg22
F192.0
sg23
I-1
sg24
I-1
sg25
I140
sg26
F0.35320255160331726
sg13
I39
sg27
I262
sg28
I13
sg29
g30
sg31
g30
sg32
F32.5
sg33
g30
sg34
F-6.5
sbasS'folder'
p50
g9
sg25
I-1
sS'dataset_path'
p51
g9
sbag1
(g2
g3
Ntp52
Rp53
(dp54
g7
I-1
sg8
g9
sg10
I1
sg11
S'TUD-Crossing/frames_tensorbox/000002.jpg'
p55
sg13
I-1
sg14
(lp56
g1
(g16
g3
Ntp57
Rp58
(dp59
g20
F0.9985563158988953
sg21
F320.0
sg22
F170.0
sg23
I-1
sg24
I-1
sg25
I150
sg26
F0.9954586029052734
sg13
I59
sg27
I245
sg28
I458
sg29
g30
sg31
g30
sg32
F487.5
sg33
g30
sg34
F428.5
sbag1
(g16
g3
Ntp60
Rp61
(dp62
g20
F0.9776548147201538
sg21
F327.0
sg22
F199.0
sg23
I-1
sg24
I-1
sg25
I128
sg26
F0.9776548147201538
sg13
I53
sg27
I263
sg28
I180
sg29
g30
sg31
g30
sg32
F206.5
sg33
g30
sg34
F153.5
sbag1
(g16
g3
Ntp63
Rp64
(dp65
g20
F0.9985613226890564
sg21
F367.0
sg22
F179.0
sg23
I-1
sg24
I-1
sg25
I188
sg26
F0.9840025305747986
sg13
I66
sg27
I273
sg28
I253
sg29
g30
sg31
g30
sg32
F286.0
sg33
g30
sg34
F220.0
sbag1
(g16
g3
Ntp66
Rp67
(dp68
g20
F0.995563268661499
sg21
F356.5
sg22
F183.5
sg23
I-1
sg24
I-1
sg25
I173
sg26
F0.9953441023826599
sg13
I56
sg27
I270
sg28
I116
sg29
g30
sg31
g30
sg32
F144.0
sg33
g30
sg34
F88.0
sbag1
(g16
g3
Ntp69
Rp70
(dp71
g20
F0.9894251823425293
sg21
F361.0
sg22
F189.0
sg23
I-1
sg24
I-1
sg25
I172
sg26
F0.9853480458259583
sg13
I61
sg27
I275
sg28
I88
sg29
g30
sg31
g30
sg32
F118.5
sg33
g30
sg34
F57.5
sbag1
(g16
g3
Ntp72
Rp73
(dp74
g20
F0.5230004191398621
sg21
F329.5
sg22
F182.5
sg23
I-1
sg24
I-1
sg25
I147
sg26
F0.5230004191398621
sg13
I42
sg27
I256
sg28
I12
sg29
g30
sg31
g30
sg32
F33.0
sg33
g30
sg34
F-9.0
sbasg50
g9
sg25
I-1
sg51
g9
sbag1
(g2
g3
Ntp75
Rp76
(dp77
g7
I-1
sg8
g9
sg10
I2
sg11
S'TUD-Crossing/frames_tensorbox/000003.jpg'
p78
sg13
I-1
sg14
(lp79
g1
(g16
g3
Ntp80
Rp81
(dp82
g20
F0.8626008629798889
sg21
F359.0
sg22
F159.0
sg23
I-1
sg24
I-1
sg25
I200
sg26
F0.8626008629798889
sg13
I63
sg27
I259
sg28
I-3
sg29
g30
sg31
g30
sg32
F28.5
sg33
g30
sg34
F-34.5
sbag1
(g16
g3
Ntp83
Rp84
(dp85
g20
F0.9940432906150818
sg21
F358.5
sg22
F183.5
sg23
I-1
sg24
I-1
sg25
I175
sg26
F0.9703512787818909
sg13
I58
sg27
I271
sg28
I118
sg29
g30
sg31
g30
sg32
F147.0
sg33
g30
sg34
F89.0
sbag1
(g16
g3
Ntp86
Rp87
(dp88
g20
F0.9442338943481445
sg21
F326.0
sg22
F198.0
sg23
I-1
sg24
I-1
sg25
I128
sg26
F0.9323832988739014
sg13
I55
sg27
I262
sg28
I179
sg29
g30
sg31
g30
sg32
F206.5
sg33
g30
sg34
F151.5
sbag1
(g16
g3
Ntp89
Rp90
(dp91
g20
F0.9059739112854004
sg21
F350.0
sg22
F188.0
sg23
I-1
sg24
I-1
sg25
I162
sg26
F0.9059739112854004
sg13
I60
sg27
I269
sg28
I214
sg29
g30
sg31
g30
sg32
F244.0
sg33
g30
sg34
F184.0
sbag1
(g16
g3
Ntp92
Rp93
(dp94
g20
F0.9991989731788635
sg21
F366.0
sg22
F178.0
sg23
I-1
sg24
I-1
sg25
I188
sg26
F0.9990624785423279
sg13
I74
sg27
I272
sg28
I268
sg29
g30
sg31
g30
sg32
F305.0
sg33
g30
sg34
F231.0
sbag1
(g16
g3
Ntp95
Rp96
(dp97
g20
F0.9969190359115601
sg21
F324.0
sg22
F172.0
sg23
I-1
sg24
I-1
sg25
I152
sg26
F0.9968565702438354
sg13
I63
sg27
I248
sg28
I464
sg29
g30
sg31
g30
sg32
F495.5
sg33
g30
sg34
F432.5
sbag1
(g16
g3
Ntp98
Rp99
(dp100
g20
F0.988805890083313
sg21
F362.5
sg22
F193.5
sg23
I-1
sg24
I-1
sg25
I169
sg26
F0.9884146451950073
sg13
I64
sg27
I278
sg28
I90
sg29
g30
sg31
g30
sg32
F122.0
sg33
g30
sg34
F58.0
sbasg50
g9
sg25
I-1
sg51
g9
sbag1
(g2
g3
Ntp101
Rp102
(dp103
g7
I-1
sg8
g9
sg10
I3
sg11
S'TUD-Crossing/frames_tensorbox/000004.jpg'
p104
sg13
I-1
sg14
(lp105
g1
(g16
g3
Ntp106
Rp107
(dp108
g20
F0.9592106342315674
sg21
F355.5
sg22
F162.5
sg23
I-1
sg24
I-1
sg25
I193
sg26
F0.9592106342315674
sg13
I63
sg27
I259
sg28
I0
sg29
g30
sg31
g30
sg32
F31.5
sg33
g30
sg34
F-31.5
sbag1
(g16
g3
Ntp109
Rp110
(dp111
g20
F0.9934856295585632
sg21
F359.0
sg22
F189.0
sg23
I-1
sg24
I-1
sg25
I170
sg26
F0.9934856295585632
sg13
I62
sg27
I274
sg28
I105
sg29
g30
sg31
g30
sg32
F136.0
sg33
g30
sg34
F74.0
sbag1
(g16
g3
Ntp112
Rp113
(dp114
g20
F0.9832081198692322
sg21
F342.0
sg22
F186.0
sg23
I-1
sg24
I-1
sg25
I156
sg26
F0.9832081198692322
sg13
I68
sg27
I264
sg28
I192
sg29
g30
sg31
g30
sg32
F226.0
sg33
g30
sg34
F158.0
sbag1
(g16
g3
Ntp115
Rp116
(dp117
g20
F0.992122232913971
sg21
F349.5
sg22
F188.5
sg23
I-1
sg24
I-1
sg25
I161
sg26
F0.9914152026176453
sg13
I55
sg27
I269
sg28
I123
sg29
g30
sg31
g30
sg32
F150.5
sg33
g30
sg34
F95.5
sbag1
(g16
g3
Ntp118
Rp119
(dp120
g20
F0.9989594221115112
sg21
F364.5
sg22
F179.5
sg23
I-1
sg24
I-1
sg25
I185
sg26
F0.9984425902366638
sg13
I71
sg27
I272
sg28
I272
sg29
g30
sg31
g30
sg32
F307.5
sg33
g30
sg34
F236.5
sbag1
(g16
g3
Ntp121
Rp122
(dp123
g20
F0.9975659847259521
sg21
F328.0
sg22
F174.0
sg23
I-1
sg24
I-1
sg25
I154
sg26
F0.9969280362129211
sg13
I63
sg27
I251
sg28
I466
sg29
g30
sg31
g30
sg32
F497.5
sg33
g30
sg34
F434.5
sbag1
(g16
g3
Ntp124
Rp125
(dp126
g20
F0.3829657733440399
sg21
F248.5
sg22
F-204.5
sg23
I-1
sg24
I-1
sg25
I453
sg26
F0.3829657733440399
sg13
I136
sg27
I22
sg28
I106
sg29
g30
sg31
g30
sg32
F174.0
sg33
g30
sg34
F38.0
sbasg50
g9
sg25
I-1
sg51
g9
sbag1
(g2
g3
Ntp127
Rp128
(dp129
g7
I-1
sg8
g9
sg10
I4
sg11
S'TUD-Crossing/frames_tensorbox/000005.jpg'
p130
sg13
I-1
sg14
(lp131
g1
(g16
g3
Ntp132
Rp133
(dp134
g20
F0.9780473113059998
sg21
F354.5
sg22
F163.5
sg23
I-1
sg24
I-1
sg25
I191
sg26
F0.9780473113059998
sg13
I63
sg27
I259
sg28
I2
sg29
g30
sg31
g30
sg32
F33.5
sg33
g30
sg34
F-29.5
sbag1
(g16
g3
Ntp135
Rp136
(dp137
g20
F0.9969611763954163
sg21
F349.0
sg22
F187.0
sg23
I-1
sg24
I-1
sg25
I162
sg26
F0.9674493074417114
sg13
I59
sg27
I268
sg28
I206
sg29
g30
sg31
g30
sg32
F235.5
sg33
g30
sg34
F176.5
sbag1
(g16
g3
Ntp138
Rp139
(dp140
g20
F0.9992924928665161
sg21
F371.0
sg22
F179.0
sg23
I-1
sg24
I-1
sg25
I192
sg26
F0.998176097869873
sg13
I73
sg27
I275
sg28
I276
sg29
g30
sg31
g30
sg32
F312.5
sg33
g30
sg34
F239.5
sbag1
(g16
g3
Ntp141
Rp142
(dp143
g20
F0.9939326643943787
sg21
F352.5
sg22
F185.5
sg23
I-1
sg24
I-1
sg25
I167
sg26
F0.9932483434677124
sg13
I57
sg27
I269
sg28
I131
sg29
g30
sg31
g30
sg32
F159.5
sg33
g30
sg34
F102.5
sbag1
(g16
g3
Ntp144
Rp145
(dp146
g20
F0.998254120349884
sg21
F328.5
sg22
F179.5
sg23
I-1
sg24
I-1
sg25
I149
sg26
F0.9979224801063538
sg13
I65
sg27
I254
sg28
I469
sg29
g30
sg31
g30
sg32
F501.5
sg33
g30
sg34
F436.5
sbag1
(g16
g3
Ntp147
Rp148
(dp149
g20
F0.9910340905189514
sg21
F366.5
sg22
F189.5
sg23
I-1
sg24
I-1
sg25
I177
sg26
F0.9906348586082458
sg13
I68
sg27
I278
sg28
I109
sg29
g30
sg31
g30
sg32
F143.0
sg33
g30
sg34
F75.0
sbasg50
g9
sg25
I-1
sg51
g9
sbag1
(g2
g3
Ntp150
Rp151
(dp152
g7
I-1
sg8
g9
sg10
I5
sg11
S'TUD-Crossing/frames_tensorbox/000006.jpg'
p153
sg13
I-1
sg14
(lp154
g1
(g16
g3
Ntp155
Rp156
(dp157
g20
F0.9594299793243408
sg21
F354.0
sg22
F186.0
sg23
I-1
sg24
I-1
sg25
I168
sg26
F0.9594299793243408
sg13
I60
sg27
I270
sg28
I187
sg29
g30
sg31
g30
sg32
F217.0
sg33
g30
sg34
F157.0
sbag1
(g16
g3
Ntp158
Rp159
(dp160
g20
F0.9992850422859192
sg21
F365.0
sg22
F181.0
sg23
I-1
sg24
I-1
sg25
I184
sg26
F0.9976176619529724
sg13
I73
sg27
I273
sg28
I282
sg29
g30
sg31
g30
sg32
F318.5
sg33
g30
sg34
F245.5
sbag1
(g16
g3
Ntp161
Rp162
(dp163
g20
F0.9940608143806458
sg21
F368.0
sg22
F192.0
sg23
I-1
sg24
I-1
sg25
I176
sg26
F0.9738328456878662
sg13
I69
sg27
I280
sg28
I104
sg29
g30
sg31
g30
sg32
F138.5
sg33
g30
sg34
F69.5
sbag1
(g16
g3
Ntp164
Rp165
(dp166
g20
F0.9984129667282104
sg21
F330.0
sg22
F178.0
sg23
I-1
sg24
I-1
sg25
I152
sg26
F0.9983239769935608
sg13
I63
sg27
I254
sg28
I476
sg29
g30
sg31
g30
sg32
F507.5
sg33
g30
sg34
F444.5
sbag1
(g16
g3
Ntp167
Rp168
(dp169
g20
F0.9965009689331055
sg21
F351.0
sg22
F183.0
sg23
I-1
sg24
I-1
sg25
I168
sg26
F0.9964022636413574
sg13
I59
sg27
I267
sg28
I139
sg29
g30
sg31
g30
sg32
F168.5
sg33
g30
sg34
F109.5
sbag1
(g16
g3
Ntp170
Rp171
(dp172
g20
F0.980647623538971
sg21
F342.0
sg22
F188.0
sg23
I-1
sg24
I-1
sg25
I154
sg26
F0.9779888987541199
sg13
I53
sg27
I265
sg28
I216
sg29
g30
sg31
g30
sg32
F242.5
sg33
g30
sg34
F189.5
sbag1
(g16
g3
Ntp173
Rp174
(dp175
g20
F0.4684593975543976
sg21
F339.0
sg22
F179.0
sg23
I-1
sg24
I-1
sg25
I160
sg26
F0.4684593975543976
sg13
I58
sg27
I259
sg28
I-2
sg29
g30
sg31
g30
sg32
F27.0
sg33
g30
sg34
F-31.0
sbasg50
g9
sg25
I-1
sg51
g9
sbag1
(g2
g3
Ntp176
Rp177
(dp178
g7
I-1
sg8
g9
sg10
I6
sg11
S'TUD-Crossing/frames_tensorbox/000007.jpg'
p179
sg13
I-1
sg14
(lp180
g1
(g16
g3
Ntp181
Rp182
(dp183
g20
F0.9982820749282837
sg21
F348.5
sg22
F189.5
sg23
I-1
sg24
I-1
sg25
I159
sg26
F0.9853295683860779
sg13
I57
sg27
I269
sg28
I209
sg29
g30
sg31
g30
sg32
F237.5
sg33
g30
sg34
F180.5
sbag1
(g16
g3
Ntp184
Rp185
(dp186
g20
F0.9988428354263306
sg21
F362.5
sg22
F179.5
sg23
I-1
sg24
I-1
sg25
I183
sg26
F0.9960592985153198
sg13
I70
sg27
I271
sg28
I289
sg29
g30
sg31
g30
sg32
F324.0
sg33
g30
sg34
F254.0
sbag1
(g16
g3
Ntp187
Rp188
(dp189
g20
F0.9638270735740662
sg21
F361.0
sg22
F213.0
sg23
I-1
sg24
I-1
sg25
I148
sg26
F0.9566382765769958
sg13
I58
sg27
I287
sg28
I118
sg29
g30
sg31
g30
sg32
F147.0
sg33
g30
sg34
F89.0
sbag1
(g16
g3
Ntp190
Rp191
(dp192
g20
F0.9982954859733582
sg21
F329.0
sg22
F177.0
sg23
I-1
sg24
I-1
sg25
I152
sg26
F0.9976487755775452
sg13
I61
sg27
I253
sg28
I483
sg29
g30
sg31
g30
sg32
F513.5
sg33
g30
sg34
F452.5
sbag1
(g16
g3
Ntp193
Rp194
(dp195
g20
F0.9914425015449524
sg21
F364.5
sg22
F201.5
sg23
I-1
sg24
I-1
sg25
I163
sg26
F0.9220847487449646
sg13
I66
sg27
I283
sg28
I116
sg29
g30
sg31
g30
sg32
F149.0
sg33
g30
sg34
F83.0
sbag1
(g16
g3
Ntp196
Rp197
(dp198
g20
F0.7271296381950378
sg21
F280.5
sg22
F207.5
sg23
I-1
sg24
I-1
sg25
I73
sg26
F0.7271296381950378
sg13
I31
sg27
I244
sg28
I6
sg29
g30
sg31
g30
sg32
F21.5
sg33
g30
sg34
F-9.5
sbasg50
g9
sg25
I-1
sg51
g9
sbag1
(g2
g3
Ntp199
Rp200
(dp201
g7
I-1
sg8
g9
sg10
I7
sg11
S'TUD-Crossing/frames_tensorbox/000008.jpg'
p202
sg13
I-1
sg14
(lp203
g1
(g16
g3
Ntp204
Rp205
(dp206
g20
F0.9952599406242371
sg21
F354.0
sg22
F184.0
sg23
I-1
sg24
I-1
sg25
I170
sg26
F0.9813970327377319
sg13
I64
sg27
I269
sg28
I144
sg29
g30
sg31
g30
sg32
F176.0
sg33
g30
sg34
F112.0
sbag1
(g16
g3
Ntp207
Rp208
(dp209
g20
F0.9990774393081665
sg21
F363.5
sg22
F178.5
sg23
I-1
sg24
I-1
sg25
I185
sg26
F0.9966685175895691
sg13
I69
sg27
I271
sg28
I295
sg29
g30
sg31
g30
sg32
F329.5
sg33
g30
sg34
F260.5
sbag1
(g16
g3
Ntp210
Rp211
(dp212
g20
F0.9895780682563782
sg21
F363.0
sg22
F195.0
sg23
I-1
sg24
I-1
sg25
I168
sg26
F0.965755045413971
sg13
I65
sg27
I279
sg28
I119
sg29
g30
sg31
g30
sg32
F151.5
sg33
g30
sg34
F86.5
sbag1
(g16
g3
Ntp213
Rp214
(dp215
g20
F0.9969112277030945
sg21
F337.5
sg22
F190.5
sg23
I-1
sg24
I-1
sg25
I147
sg26
F0.9965484738349915
sg13
I50
sg27
I264
sg28
I212
sg29
g30
sg31
g30
sg32
F237.0
sg33
g30
sg34
F187.0
sbag1
(g16
g3
Ntp216
Rp217
(dp218
g20
F0.9981532692909241
sg21
F325.5
sg22
F180.5
sg23
I-1
sg24
I-1
sg25
I145
sg26
F0.9977204203605652
sg13
I55
sg27
I253
sg28
I488
sg29
g30
sg31
g30
sg32
F515.5
sg33
g30
sg34
F460.5
sbasg50
g9
sg25
I-1
sg51
g9
sbag1
(g2
g3
Ntp219
Rp220
(dp221
g7
I-1
sg8
g9
sg10
I8
sg11
S'TUD-Crossing/frames_tensorbox/000009.jpg'
p222
sg13
I-1
sg14
(lp223
g1
(g16
g3
Ntp224
Rp225
(dp226
g20
F0.9968234300613403
sg21
F359.0
sg22
F189.0
sg23
I-1
sg24
I-1
sg25
I170
sg26
F0.9968234300613403
sg13
I68
sg27
I274
sg28
I14
sg29
g30
sg31
g30
sg32
F48.0
sg33
g30
sg34
F-20.0
sbag1
(g16
g3
Ntp227
Rp228
(dp229
g20
F0.9991698265075684
sg21
F364.5
sg22
F175.5
sg23
I-1
sg24
I-1
sg25
I189
sg26
F0.9978801012039185
sg13
I71
sg27
I270
sg28
I299
sg29
g30
sg31
g30
sg32
F334.5
sg33
g30
sg34
F263.5
sbag1
(g16
g3
Ntp230
Rp231
(dp232
g20
F0.9886019825935364
sg21
F355.5
sg22
F182.5
sg23
I-1
sg24
I-1
sg25
I173
sg26
F0.9885003566741943
sg13
I67
sg27
I269
sg28
I144
sg29
g30
sg31
g30
sg32
F177.5
sg33
g30
sg34
F110.5
sbag1
(g16
g3
Ntp233
Rp234
(dp235
g20
F0.9955058097839355
sg21
F332.0
sg22
F180.0
sg23
I-1
sg24
I-1
sg25
I152
sg26
F0.9954533576965332
sg13
I48
sg27
I256
sg28
I217
sg29
g30
sg31
g30
sg32
F241.0
sg33
g30
sg34
F193.0
sbag1
(g16
g3
Ntp236
Rp237
(dp238
g20
F0.9981902241706848
sg21
F325.0
sg22
F179.0
sg23
I-1
sg24
I-1
sg25
I146
sg26
F0.9977916479110718
sg13
I54
sg27
I252
sg28
I493
sg29
g30
sg31
g30
sg32
F520.0
sg33
g30
sg34
F466.0
sbag1
(g16
g3
Ntp239
Rp240
(dp241
g20
F0.9941809773445129
sg21
F355.0
sg22
F181.0
sg23
I-1
sg24
I-1
sg25
I174
sg26
F0.9911660552024841
sg13
I66
sg27
I268
sg28
I151
sg29
g30
sg31
g30
sg32
F184.0
sg33
g30
sg34
F118.0
sbag1
(g16
g3
Ntp242
Rp243
(dp244
g20
F0.742785632610321
sg21
F261.0
sg22
F201.0
sg23
I-1
sg24
I-1
sg25
I60
sg26
F0.742785632610321
sg13
I19
sg27
I231
sg28
I455
sg29
g30
sg31
g30
sg32
F464.5
sg33
g30
sg34
F445.5
sbag1
(g16
g3
Ntp245
Rp246
(dp247
g20
F0.40154051780700684
sg21
F353.5
sg22
F186.5
sg23
I-1
sg24
I-1
sg25
I167
sg26
F0.40154051780700684
sg13
I69
sg27
I270
sg28
I284
sg29
g30
sg31
g30
sg32
F318.5
sg33
g30
sg34
F249.5
sbasg50
g9
sg25
I-1
sg51
g9
sbag1
(g2
g3
Ntp248
Rp249
(dp250
g7
I-1
sg8
g9
sg10
I9
sg11
S'TUD-Crossing/frames_tensorbox/000010.jpg'
p251
sg13
I-1
sg14
(lp252
g1
(g16
g3
Ntp253
Rp254
(dp255
g20
F0.9974452257156372
sg21
F329.0
sg22
F179.0
sg23
I-1
sg24
I-1
sg25
I150
sg26
F0.9785863757133484
sg13
I50
sg27
I254
sg28
I498
sg29
g30
sg31
g30
sg32
F523.0
sg33
g30
sg34
F473.0
sbag1
(g16
g3
Ntp256
Rp257
(dp258
g20
F0.9864253997802734
sg21
F362.0
sg22
F186.0
sg23
I-1
sg24
I-1
sg25
I176
sg26
F0.9864253997802734
sg13
I69
sg27
I274
sg28
I16
sg29
g30
sg31
g30
sg32
F50.5
sg33
g30
sg34
F-18.5
sbag1
(g16
g3
Ntp259
Rp260
(dp261
g20
F0.9947561025619507
sg21
F357.5
sg22
F194.5
sg23
I-1
sg24
I-1
sg25
I163
sg26
F0.9828804135322571
sg13
I60
sg27
I276
sg28
I139
sg29
g30
sg31
g30
sg32
F169.0
sg33
g30
sg34
F109.0
sbag1
(g16
g3
Ntp262
Rp263
(dp264
g20
F0.9934384226799011
sg21
F336.0
sg22
F180.0
sg23
I-1
sg24
I-1
sg25
I156
sg26
F0.9910644292831421
sg13
I55
sg27
I258
sg28
I222
sg29
g30
sg31
g30
sg32
F249.5
sg33
g30
sg34
F194.5
sbag1
(g16
g3
Ntp265
Rp266
(dp267
g20
F0.9994086027145386
sg21
F362.5
sg22
F173.5
sg23
I-1
sg24
I-1
sg25
I189
sg26
F0.9993265867233276
sg13
I79
sg27
I268
sg28
I305
sg29
g30
sg31
g30
sg32
F344.5
sg33
g30
sg34
F265.5
sbag1
(g16
g3
Ntp268
Rp269
(dp270
g20
F0.9961068034172058
sg21
F355.5
sg22
F178.5
sg23
I-1
sg24
I-1
sg25
I177
sg26
F0.995609700679779
sg13
I67
sg27
I267
sg28
I158
sg29
g30
sg31
g30
sg32
F191.5
sg33
g30
sg34
F124.5
sbag1
(g16
g3
Ntp271
Rp272
(dp273
g20
F0.8804042339324951
sg21
F344.5
sg22
F179.5
sg23
I-1
sg24
I-1
sg25
I165
sg26
F0.841847836971283
sg13
I67
sg27
I262
sg28
I263
sg29
g30
sg31
g30
sg32
F296.5
sg33
g30
sg34
F229.5
sbag1
(g16
g3
Ntp274
Rp275
(dp276
g20
F0.5357093214988708
sg21
F252.5
sg22
F199.5
sg23
I-1
sg24
I-1
sg25
I53
sg26
F0.5357093214988708
sg13
I16
sg27
I226
sg28
I464
sg29
g30
sg31
g30
sg32
F472.0
sg33
g30
sg34
F456.0
sbasg50
g9
sg25
I-1
sg51
g9
sbag1
(g2
g3
Ntp277
Rp278
(dp279
g7
I-1
sg8
g9
sg10
I10
sg11
S'TUD-Crossing/frames_tensorbox/000011.jpg'
p280
sg13
I-1
sg14
(lp281
g1
(g16
g3
Ntp282
Rp283
(dp284
g20
F0.9968205690383911
sg21
F330.0
sg22
F170.0
sg23
I-1
sg24
I-1
sg25
I160
sg26
F0.993579626083374
sg13
I48
sg27
I250
sg28
I503
sg29
g30
sg31
g30
sg32
F527.0
sg33
g30
sg34
F479.0
sbag1
(g16
g3
Ntp285
Rp286
(dp287
g20
F0.9609701037406921
sg21
F362.5
sg22
F187.5
sg23
I-1
sg24
I-1
sg25
I175
sg26
F0.9609701037406921
sg13
I65
sg27
I275
sg28
I15
sg29
g30
sg31
g30
sg32
F47.5
sg33
g30
sg34
F-17.5
sbag1
(g16
g3
Ntp288
Rp289
(dp290
g20
F0.9987137317657471
sg21
F365.0
sg22
F181.0
sg23
I-1
sg24
I-1
sg25
I184
sg26
F0.9941682815551758
sg13
I71
sg27
I273
sg28
I165
sg29
g30
sg31
g30
sg32
F200.5
sg33
g30
sg34
F129.5
sbag1
(g16
g3
Ntp291
Rp292
(dp293
g20
F0.9931704998016357
sg21
F358.0
sg22
F192.0
sg23
I-1
sg24
I-1
sg25
I166
sg26
F0.9768106937408447
sg13
I60
sg27
I275
sg28
I144
sg29
g30
sg31
g30
sg32
F174.0
sg33
g30
sg34
F114.0
sbag1
(g16
g3
Ntp294
Rp295
(dp296
g20
F0.9913138747215271
sg21
F344.5
sg22
F181.5
sg23
I-1
sg24
I-1
sg25
I163
sg26
F0.9861124157905579
sg13
I56
sg27
I263
sg28
I225
sg29
g30
sg31
g30
sg32
F253.0
sg33
g30
sg34
F197.0
sbag1
(g16
g3
Ntp297
Rp298
(dp299
g20
F0.9994068145751953
sg21
F364.5
sg22
F171.5
sg23
I-1
sg24
I-1
sg25
I193
sg26
F0.9992924928665161
sg13
I75
sg27
I268
sg28
I312
sg29
g30
sg31
g30
sg32
F349.5
sg33
g30
sg34
F274.5
sbasg50
g9
sg25
I-1
sg51
g9
sbag1
(g2
g3
Ntp300
Rp301
(dp302
g7
I-1
sg8
g9
sg10
I11
sg11
S'TUD-Crossing/frames_tensorbox/000012.jpg'
p303
sg13
I-1
sg14
(lp304
g1
(g16
g3
Ntp305
Rp306
(dp307
g20
F0.9987903237342834
sg21
F330.5
sg22
F171.5
sg23
I-1
sg24
I-1
sg25
I159
sg26
F0.995919942855835
sg13
I50
sg27
I251
sg28
I508
sg29
g30
sg31
g30
sg32
F533.0
sg33
g30
sg34
F483.0
sbag1
(g16
g3
Ntp308
Rp309
(dp310
g20
F0.9706566333770752
sg21
F365.0
sg22
F177.0
sg23
I-1
sg24
I-1
sg25
I188
sg26
F0.9569534659385681
sg13
I61
sg27
I271
sg28
I22
sg29
g30
sg31
g30
sg32
F52.5
sg33
g30
sg34
F-8.5
sbag1
(g16
g3
Ntp311
Rp312
(dp313
g20
F0.9983256459236145
sg21
F358.0
sg22
F180.0
sg23
I-1
sg24
I-1
sg25
I178
sg26
F0.9946193695068359
sg13
I71
sg27
I269
sg28
I169
sg29
g30
sg31
g30
sg32
F204.5
sg33
g30
sg34
F133.5
sbag1
(g16
g3
Ntp314
Rp315
(dp316
g20
F0.9916996955871582
sg21
F362.0
sg22
F190.0
sg23
I-1
sg24
I-1
sg25
I172
sg26
F0.9792715907096863
sg13
I66
sg27
I276
sg28
I149
sg29
g30
sg31
g30
sg32
F182.0
sg33
g30
sg34
F116.0
sbag1
(g16
g3
Ntp317
Rp318
(dp319
g20
F0.9964260458946228
sg21
F336.0
sg22
F184.0
sg23
I-1
sg24
I-1
sg25
I152
sg26
F0.9963411688804626
sg13
I56
sg27
I260
sg28
I235
sg29
g30
sg31
g30
sg32
F263.0
sg33
g30
sg34
F207.0
sbag1
(g16
g3
Ntp320
Rp321
(dp322
g20
F0.9994344115257263
sg21
F360.5
sg22
F169.5
sg23
I-1
sg24
I-1
sg25
I191
sg26
F0.9993165731430054
sg13
I74
sg27
I265
sg28
I316
sg29
g30
sg31
g30
sg32
F353.0
sg33
g30
sg34
F279.0
sbasg50
g9
sg25
I-1
sg51
g9
sbag1
(g2
g3
Ntp323
Rp324
(dp325
g7
I-1
sg8
g9
sg10
I12
sg11
S'TUD-Crossing/frames_tensorbox/000013.jpg'
p326
sg13
I-1
sg14
(lp327
g1
(g16
g3
Ntp328
Rp329
(dp330
g20
F0.9988288283348083
sg21
F329.0
sg22
F169.0
sg23
I-1
sg24
I-1
sg25
I160
sg26
F0.9949278831481934
sg13
I53
sg27
I249
sg28
I514
sg29
g30
sg31
g30
sg32
F540.5
sg33
g30
sg34
F487.5
sbag1
(g16
g3
Ntp331
Rp332
(dp333
g20
F0.9986549615859985
sg21
F356.5
sg22
F181.5
sg23
I-1
sg24
I-1
sg25
I175
sg26
F0.9968558549880981
sg13
I62
sg27
I269
sg28
I30
sg29
g30
sg31
g30
sg32
F61.0
sg33
g30
sg34
F-1.0
sbag1
(g16
g3
Ntp334
Rp335
(dp336
g20
F0.9926871061325073
sg21
F363.5
sg22
F194.5
sg23
I-1
sg24
I-1
sg25
I169
sg26
F0.9926871061325073
sg13
I60
sg27
I279
sg28
I152
sg29
g30
sg31
g30
sg32
F182.0
sg33
g30
sg34
F122.0
sbag1
(g16
g3
Ntp337
Rp338
(dp339
g20
F0.9972260594367981
sg21
F355.0
sg22
F183.0
sg23
I-1
sg24
I-1
sg25
I172
sg26
F0.9972260594367981
sg13
I64
sg27
I269
sg28
I169
sg29
g30
sg31
g30
sg32
F201.0
sg33
g30
sg34
F137.0
sbag1
(g16
g3
Ntp340
Rp341
(dp342
g20
F0.8624485731124878
sg21
F348.0
sg22
F174.0
sg23
I-1
sg24
I-1
sg25
I174
sg26
F0.8624485731124878
sg13
I70
sg27
I261
sg28
I279
sg29
g30
sg31
g30
sg32
F314.0
sg33
g30
sg34
F244.0
sbag1
(g16
g3
Ntp343
Rp344
(dp345
g20
F0.9989789724349976
sg21
F361.0
sg22
F171.0
sg23
I-1
sg24
I-1
sg25
I190
sg26
F0.9969239830970764
sg13
I65
sg27
I266
sg28
I321
sg29
g30
sg31
g30
sg32
F353.5
sg33
g30
sg34
F288.5
sbag1
(g16
g3
Ntp346
Rp347
(dp348
g20
F0.9950496554374695
sg21
F332.0
sg22
F184.0
sg23
I-1
sg24
I-1
sg25
I148
sg26
F0.9944493770599365
sg13
I60
sg27
I258
sg28
I240
sg29
g30
sg31
g30
sg32
F270.0
sg33
g30
sg34
F210.0
sbag1
(g16
g3
Ntp349
Rp350
(dp351
g20
F0.20565934479236603
sg21
F308.0
sg22
F218.0
sg23
I-1
sg24
I-1
sg25
I90
sg26
F0.20565934479236603
sg13
I27
sg27
I263
sg28
I-3
sg29
g30
sg31
g30
sg32
F10.5
sg33
g30
sg34
F-16.5
sbasg50
g9
sg25
I-1
sg51
g9
sbag1
(g2
g3
Ntp352
Rp353
(dp354
g7
I-1
sg8
g9
sg10
I13
sg11
S'TUD-Crossing/frames_tensorbox/000014.jpg'
p355
sg13
I-1
sg14
(lp356
g1
(g16
g3
Ntp357
Rp358
(dp359
g20
F0.9985376596450806
sg21
F327.5
sg22
F168.5
sg23
I-1
sg24
I-1
sg25
I159
sg26
F0.9967617392539978
sg13
I56
sg27
I248
sg28
I519
sg29
g30
sg31
g30
sg32
F547.0
sg33
g30
sg34
F491.0
sbag1
(g16
g3
Ntp360
Rp361
(dp362
g20
F0.9964131712913513
sg21
F337.5
sg22
F184.5
sg23
I-1
sg24
I-1
sg25
I153
sg26
F0.8878698945045471
sg13
I64
sg27
I261
sg28
I248
sg29
g30
sg31
g30
sg32
F280.0
sg33
g30
sg34
F216.0
sbag1
(g16
g3
Ntp363
Rp364
(dp365
g20
F0.9981606602668762
sg21
F360.0
sg22
F172.0
sg23
I-1
sg24
I-1
sg25
I188
sg26
F0.9960511326789856
sg13
I61
sg27
I266
sg28
I329
sg29
g30
sg31
g30
sg32
F359.5
sg33
g30
sg34
F298.5
sbag1
(g16
g3
Ntp366
Rp367
(dp368
g20
F0.9969436526298523
sg21
F352.5
sg22
F187.5
sg23
I-1
sg24
I-1
sg25
I165
sg26
F0.9969245791435242
sg13
I57
sg27
I270
sg28
I32
sg29
g30
sg31
g30
sg32
F60.5
sg33
g30
sg34
F3.5
sbag1
(g16
g3
Ntp369
Rp370
(dp371
g20
F0.981862485408783
sg21
F355.0
sg22
F201.0
sg23
I-1
sg24
I-1
sg25
I154
sg26
F0.9497600793838501
sg13
I55
sg27
I278
sg28
I151
sg29
g30
sg31
g30
sg32
F178.5
sg33
g30
sg34
F123.5
sbag1
(g16
g3
Ntp372
Rp373
(dp374
g20
F0.9902883768081665
sg21
F368.0
sg22
F196.0
sg23
I-1
sg24
I-1
sg25
I172
sg26
F0.9900400042533875
sg13
I64
sg27
I282
sg28
I150
sg29
g30
sg31
g30
sg32
F182.0
sg33
g30
sg34
F118.0
sbag1
(g16
g3
Ntp375
Rp376
(dp377
g20
F0.9457789063453674
sg21
F335.5
sg22
F192.5
sg23
I-1
sg24
I-1
sg25
I143
sg26
F0.9457789063453674
sg13
I53
sg27
I264
sg28
I284
sg29
g30
sg31
g30
sg32
F310.5
sg33
g30
sg34
F257.5
sbag1
(g16
g3
Ntp378
Rp379
(dp380
g20
F0.5302956700325012
sg21
F325.5
sg22
F216.5
sg23
I-1
sg24
I-1
sg25
I109
sg26
F0.5302956700325012
sg13
I34
sg27
I271
sg28
I-1
sg29
g30
sg31
g30
sg32
F16.0
sg33
g30
sg34
F-18.0
sbag1
(g16
g3
Ntp381
Rp382
(dp383
g20
F0.4004146456718445
sg21
F349.5
sg22
F196.5
sg23
I-1
sg24
I-1
sg25
I153
sg26
F0.4004146456718445
sg13
I55
sg27
I273
sg28
I316
sg29
g30
sg31
g30
sg32
F343.5
sg33
g30
sg34
F288.5
sbasg50
g9
sg25
I-1
sg51
g9
sbag1
(g2
g3
Ntp384
Rp385
(dp386
g7
I-1
sg8
g9
sg10
I14
sg11
S'TUD-Crossing/frames_tensorbox/000015.jpg'
p387
sg13
I-1
sg14
(lp388
g1
(g16
g3
Ntp389
Rp390
(dp391
g20
F0.9987953901290894
sg21
F323.5
sg22
F164.5
sg23
I-1
sg24
I-1
sg25
I159
sg26
F0.9972144961357117
sg13
I61
sg27
I244
sg28
I524
sg29
g30
sg31
g30
sg32
F554.5
sg33
g30
sg34
F493.5
sbag1
(g16
g3
Ntp392
Rp393
(dp394
g20
F0.9960893392562866
sg21
F353.0
sg22
F187.0
sg23
I-1
sg24
I-1
sg25
I166
sg26
F0.9888289570808411
sg13
I56
sg27
I270
sg28
I36
sg29
g30
sg31
g30
sg32
F64.0
sg33
g30
sg34
F8.0
sbag1
(g16
g3
Ntp395
Rp396
(dp397
g20
F0.9980090260505676
sg21
F357.5
sg22
F184.5
sg23
I-1
sg24
I-1
sg25
I173
sg26
F0.9930973649024963
sg13
I64
sg27
I271
sg28
I170
sg29
g30
sg31
g30
sg32
F202.0
sg33
g30
sg34
F138.0
sbag1
(g16
g3
Ntp398
Rp399
(dp400
g20
F0.9932762384414673
sg21
F328.5
sg22
F193.5
sg23
I-1
sg24
I-1
sg25
I135
sg26
F0.9932762384414673
sg13
I61
sg27
I261
sg28
I249
sg29
g30
sg31
g30
sg32
F279.5
sg33
g30
sg34
F218.5
sbag1
(g16
g3
Ntp401
Rp402
(dp403
g20
F0.897375226020813
sg21
F342.0
sg22
F218.0
sg23
I-1
sg24
I-1
sg25
I124
sg26
F0.897375226020813
sg13
I39
sg27
I280
sg28
I2
sg29
g30
sg31
g30
sg32
F21.5
sg33
g30
sg34
F-17.5
sbag1
(g16
g3
Ntp404
Rp405
(dp406
g20
F0.9990278482437134
sg21
F361.5
sg22
F170.5
sg23
I-1
sg24
I-1
sg25
I191
sg26
F0.9986950755119324
sg13
I68
sg27
I266
sg28
I337
sg29
g30
sg31
g30
sg32
F371.0
sg33
g30
sg34
F303.0
sbag1
(g16
g3
Ntp407
Rp408
(dp409
g20
F0.6479142308235168
sg21
F342.5
sg22
F217.5
sg23
I-1
sg24
I-1
sg25
I125
sg26
F0.6479142308235168
sg13
I44
sg27
I280
sg28
I29
sg29
g30
sg31
g30
sg32
F51.0
sg33
g30
sg34
F7.0
sbag1
(g16
g3
Ntp410
Rp411
(dp412
g20
F0.20306797325611115
sg21
F360.5
sg22
F203.5
sg23
I-1
sg24
I-1
sg25
I157
sg26
F0.20306797325611115
sg13
I53
sg27
I282
sg28
I150
sg29
g30
sg31
g30
sg32
F176.5
sg33
g30
sg34
F123.5
sbag1
(g16
g3
Ntp413
Rp414
(dp415
g20
F0.4291025400161743
sg21
F338.0
sg22
F192.0
sg23
I-1
sg24
I-1
sg25
I146
sg26
F0.4291025400161743
sg13
I50
sg27
I265
sg28
I224
sg29
g30
sg31
g30
sg32
F249.0
sg33
g30
sg34
F199.0
sbasg50
g9
sg25
I-1
sg51
g9
sbag1
(g2
g3
Ntp416
Rp417
(dp418
g7
I-1
sg8
g9
sg10
I15
sg11
S'TUD-Crossing/frames_tensorbox/000016.jpg'
p419
sg13
I-1
sg14
(lp420
g1
(g16
g3
Ntp421
Rp422
(dp423
g20
F0.8529881834983826
sg21
F332.0
sg22
F202.0
sg23
I-1
sg24
I-1
sg25
I130
sg26
F0.8529881834983826
sg13
I39
sg27
I267
sg28
I25
sg29
g30
sg31
g30
sg32
F44.5
sg33
g30
sg34
F5.5
sbag1
(g16
g3
Ntp424
Rp425
(dp426
g20
F0.998468816280365
sg21
F360.5
sg22
F185.5
sg23
I-1
sg24
I-1
sg25
I175
sg26
F0.9927362203598022
sg13
I66
sg27
I273
sg28
I170
sg29
g30
sg31
g30
sg32
F203.0
sg33
g30
sg34
F137.0
sbag1
(g16
g3
Ntp427
Rp428
(dp429
g20
F0.9805650115013123
sg21
F323.5
sg22
F190.5
sg23
I-1
sg24
I-1
sg25
I133
sg26
F0.9141883850097656
sg13
I72
sg27
I257
sg28
I258
sg29
g30
sg31
g30
sg32
F294.0
sg33
g30
sg34
F222.0
sbag1
(g16
g3
Ntp430
Rp431
(dp432
g20
F0.9976115226745605
sg21
F324.5
sg22
F173.5
sg23
I-1
sg24
I-1
sg25
I151
sg26
F0.9976085424423218
sg13
I60
sg27
I249
sg28
I528
sg29
g30
sg31
g30
sg32
F558.0
sg33
g30
sg34
F498.0
sbag1
(g16
g3
Ntp433
Rp434
(dp435
g20
F0.9946735501289368
sg21
F354.0
sg22
F194.0
sg23
I-1
sg24
I-1
sg25
I160
sg26
F0.9930729269981384
sg13
I54
sg27
I274
sg28
I40
sg29
g30
sg31
g30
sg32
F67.0
sg33
g30
sg34
F13.0
sbag1
(g16
g3
Ntp436
Rp437
(dp438
g20
F0.9993576407432556
sg21
F362.5
sg22
F169.5
sg23
I-1
sg24
I-1
sg25
I193
sg26
F0.9992480874061584
sg13
I75
sg27
I266
sg28
I346
sg29
g30
sg31
g30
sg32
F383.5
sg33
g30
sg34
F308.5
sbasg50
g9
sg25
I-1
sg51
g9
sbag1
(g2
g3
Ntp439
Rp440
(dp441
g7
I-1
sg8
g9
sg10
I16
sg11
S'TUD-Crossing/frames_tensorbox/000017.jpg'
p442
sg13
I-1
sg14
(lp443
g1
(g16
g3
Ntp444
Rp445
(dp446
g20
F0.8777626156806946
sg21
F286.5
sg22
F203.5
sg23
I-1
sg24
I-1
sg25
I83
sg26
F0.8777626156806946
sg13
I32
sg27
I245
sg28
I34
sg29
g30
sg31
g30
sg32
F50.0
sg33
g30
sg34
F18.0
sbag1
(g16
g3
Ntp447
Rp448
(dp449
g20
F0.9967144727706909
sg21
F333.5
sg22
F176.5
sg23
I-1
sg24
I-1
sg25
I157
sg26
F0.982014000415802
sg13
I66
sg27
I255
sg28
I532
sg29
g30
sg31
g30
sg32
F565.0
sg33
g30
sg34
F499.0
sbag1
(g16
g3
Ntp450
Rp451
(dp452
g20
F0.8023598194122314
sg21
F321.0
sg22
F209.0
sg23
I-1
sg24
I-1
sg25
I112
sg26
F0.8023598194122314
sg13
I35
sg27
I265
sg28
I13
sg29
g30
sg31
g30
sg32
F30.5
sg33
g30
sg34
F-4.5
sbag1
(g16
g3
Ntp453
Rp454
(dp455
g20
F0.9987572431564331
sg21
F360.5
sg22
F187.5
sg23
I-1
sg24
I-1
sg25
I173
sg26
F0.9960852861404419
sg13
I65
sg27
I274
sg28
I173
sg29
g30
sg31
g30
sg32
F205.5
sg33
g30
sg34
F140.5
sbag1
(g16
g3
Ntp456
Rp457
(dp458
g20
F0.999007523059845
sg21
F369.5
sg22
F170.5
sg23
I-1
sg24
I-1
sg25
I199
sg26
F0.9986560344696045
sg13
I69
sg27
I270
sg28
I350
sg29
g30
sg31
g30
sg32
F384.5
sg33
g30
sg34
F315.5
sbag1
(g16
g3
Ntp459
Rp460
(dp461
g20
F0.9949542880058289
sg21
F331.5
sg22
F190.5
sg23
I-1
sg24
I-1
sg25
I141
sg26
F0.9922593235969543
sg13
I58
sg27
I261
sg28
I271
sg29
g30
sg31
g30
sg32
F300.0
sg33
g30
sg34
F242.0
sbag1
(g16
g3
Ntp462
Rp463
(dp464
g20
F0.9857176542282104
sg21
F348.5
sg22
F191.5
sg23
I-1
sg24
I-1
sg25
I157
sg26
F0.9857176542282104
sg13
I56
sg27
I270
sg28
I44
sg29
g30
sg31
g30
sg32
F72.0
sg33
g30
sg34
F16.0
sbasg50
g9
sg25
I-1
sg51
g9
sbag1
(g2
g3
Ntp465
Rp466
(dp467
g7
I-1
sg8
g9
sg10
I17
sg11
S'TUD-Crossing/frames_tensorbox/000018.jpg'
p468
sg13
I-1
sg14
(lp469
g1
(g16
g3
Ntp470
Rp471
(dp472
g20
F0.8430200815200806
sg21
F320.5
sg22
F209.5
sg23
I-1
sg24
I-1
sg25
I111
sg26
F0.8430200815200806
sg13
I38
sg27
I265
sg28
I10
sg29
g30
sg31
g30
sg32
F29.0
sg33
g30
sg34
F-9.0
sbag1
(g16
g3
Ntp473
Rp474
(dp475
g20
F0.9976129531860352
sg21
F368.5
sg22
F187.5
sg23
I-1
sg24
I-1
sg25
I181
sg26
F0.9614169597625732
sg13
I69
sg27
I278
sg28
I177
sg29
g30
sg31
g30
sg32
F211.5
sg33
g30
sg34
F142.5
sbag1
(g16
g3
Ntp476
Rp477
(dp478
g20
F0.9952008724212646
sg21
F336.5
sg22
F199.5
sg23
I-1
sg24
I-1
sg25
I137
sg26
F0.9626938700675964
sg13
I54
sg27
I268
sg28
I272
sg29
g30
sg31
g30
sg32
F299.0
sg33
g30
sg34
F245.0
sbag1
(g16
g3
Ntp479
Rp480
(dp481
g20
F0.9988241791725159
sg21
F364.5
sg22
F171.5
sg23
I-1
sg24
I-1
sg25
I193
sg26
F0.9979325532913208
sg13
I68
sg27
I268
sg28
I353
sg29
g30
sg31
g30
sg32
F387.0
sg33
g30
sg34
F319.0
sbag1
(g16
g3
Ntp482
Rp483
(dp484
g20
F0.9948992133140564
sg21
F356.0
sg22
F188.0
sg23
I-1
sg24
I-1
sg25
I168
sg26
F0.9938133955001831
sg13
I66
sg27
I272
sg28
I48
sg29
g30
sg31
g30
sg32
F81.0
sg33
g30
sg34
F15.0
sbag1
(g16
g3
Ntp485
Rp486
(dp487
g20
F0.9979240894317627
sg21
F331.5
sg22
F176.5
sg23
I-1
sg24
I-1
sg25
I155
sg26
F0.9971036314964294
sg13
I68
sg27
I254
sg28
I537
sg29
g30
sg31
g30
sg32
F571.0
sg33
g30
sg34
F503.0
sbag1
(g16
g3
Ntp488
Rp489
(dp490
g20
F0.7781233191490173
sg21
F276.0
sg22
F200.0
sg23
I-1
sg24
I-1
sg25
I76
sg26
F0.7781233191490173
sg13
I35
sg27
I238
sg28
I37
sg29
g30
sg31
g30
sg32
F54.5
sg33
g30
sg34
F19.5
sbag1
(g16
g3
Ntp491
Rp492
(dp493
g20
F0.5837147831916809
sg21
F262.0
sg22
F218.0
sg23
I-1
sg24
I-1
sg25
I44
sg26
F0.5837147831916809
sg13
I15
sg27
I240
sg28
I144
sg29
g30
sg31
g30
sg32
F151.5
sg33
g30
sg34
F136.5
sbag1
(g16
g3
Ntp494
Rp495
(dp496
g20
F0.26873016357421875
sg21
F243.5
sg22
F206.5
sg23
I-1
sg24
I-1
sg25
I37
sg26
F0.26873016357421875
sg13
I13
sg27
I225
sg28
I137
sg29
g30
sg31
g30
sg32
F143.5
sg33
g30
sg34
F130.5
sbasg50
g9
sg25
I-1
sg51
g9
sbag1
(g2
g3
Ntp497
Rp498
(dp499
g7
I-1
sg8
g9
sg10
I18
sg11
S'TUD-Crossing/frames_tensorbox/000019.jpg'
p500
sg13
I-1
sg14
(lp501
g1
(g16
g3
Ntp502
Rp503
(dp504
g20
F0.9286494851112366
sg21
F340.5
sg22
F203.5
sg23
I-1
sg24
I-1
sg25
I137
sg26
F0.9286494851112366
sg13
I45
sg27
I272
sg28
I10
sg29
g30
sg31
g30
sg32
F32.5
sg33
g30
sg34
F-12.5
sbag1
(g16
g3
Ntp505
Rp506
(dp507
g20
F0.9986950755119324
sg21
F361.0
sg22
F173.0
sg23
I-1
sg24
I-1
sg25
I188
sg26
F0.9967114925384521
sg13
I68
sg27
I267
sg28
I362
sg29
g30
sg31
g30
sg32
F396.0
sg33
g30
sg34
F328.0
sbag1
(g16
g3
Ntp508
Rp509
(dp510
g20
F0.996978759765625
sg21
F355.0
sg22
F187.0
sg23
I-1
sg24
I-1
sg25
I168
sg26
F0.9957115650177002
sg13
I67
sg27
I271
sg28
I54
sg29
g30
sg31
g30
sg32
F87.5
sg33
g30
sg34
F20.5
sbag1
(g16
g3
Ntp511
Rp512
(dp513
g20
F0.9975919723510742
sg21
F360.5
sg22
F183.5
sg23
I-1
sg24
I-1
sg25
I177
sg26
F0.9973403811454773
sg13
I65
sg27
I272
sg28
I188
sg29
g30
sg31
g30
sg32
F220.5
sg33
g30
sg34
F155.5
sbag1
(g16
g3
Ntp514
Rp515
(dp516
g20
F0.9982719421386719
sg21
F330.5
sg22
F171.5
sg23
I-1
sg24
I-1
sg25
I159
sg26
F0.9964323043823242
sg13
I69
sg27
I251
sg28
I543
sg29
g30
sg31
g30
sg32
F577.5
sg33
g30
sg34
F508.5
sbag1
(g16
g3
Ntp517
Rp518
(dp519
g20
F0.9808473587036133
sg21
F337.0
sg22
F189.0
sg23
I-1
sg24
I-1
sg25
I148
sg26
F0.8774278163909912
sg13
I51
sg27
I263
sg28
I281
sg29
g30
sg31
g30
sg32
F306.5
sg33
g30
sg34
F255.5
sbag1
(g16
g3
Ntp520
Rp521
(dp522
g20
F0.7241984605789185
sg21
F332.0
sg22
F198.0
sg23
I-1
sg24
I-1
sg25
I134
sg26
F0.7241984605789185
sg13
I44
sg27
I265
sg28
I322
sg29
g30
sg31
g30
sg32
F344.0
sg33
g30
sg34
F300.0
sbag1
(g16
g3
Ntp523
Rp524
(dp525
g20
F0.5940231084823608
sg21
F254.0
sg22
F212.0
sg23
I-1
sg24
I-1
sg25
I42
sg26
F0.5940231084823608
sg13
I14
sg27
I233
sg28
I138
sg29
g30
sg31
g30
sg32
F145.0
sg33
g30
sg34
F131.0
sbasg50
g9
sg25
I-1
sg51
g9
sbag1
(g2
g3
Ntp526
Rp527
(dp528
g7
I-1
sg8
g9
sg10
I19
sg11
S'TUD-Crossing/frames_tensorbox/000020.jpg'
p529
sg13
I-1
sg14
(lp530
g1
(g16
g3
Ntp531
Rp532
(dp533
g20
F0.9384326338768005
sg21
F345.0
sg22
F199.0
sg23
I-1
sg24
I-1
sg25
I146
sg26
F0.9384326338768005
sg13
I50
sg27
I272
sg28
I5
sg29
g30
sg31
g30
sg32
F30.0
sg33
g30
sg34
F-20.0
sbag1
(g16
g3
Ntp534
Rp535
(dp536
g20
F0.9974507689476013
sg21
F357.5
sg22
F184.5
sg23
I-1
sg24
I-1
sg25
I173
sg26
F0.997109591960907
sg13
I61
sg27
I271
sg28
I199
sg29
g30
sg31
g30
sg32
F229.5
sg33
g30
sg34
F168.5
sbag1
(g16
g3
Ntp537
Rp538
(dp539
g20
F0.9991088509559631
sg21
F364.5
sg22
F169.5
sg23
I-1
sg24
I-1
sg25
I195
sg26
F0.9985226988792419
sg13
I78
sg27
I267
sg28
I365
sg29
g30
sg31
g30
sg32
F404.0
sg33
g30
sg34
F326.0
sbag1
(g16
g3
Ntp540
Rp541
(dp542
g20
F0.9980168342590332
sg21
F332.5
sg22
F173.5
sg23
I-1
sg24
I-1
sg25
I159
sg26
F0.9972801208496094
sg13
I68
sg27
I253
sg28
I546
sg29
g30
sg31
g30
sg32
F580.0
sg33
g30
sg34
F512.0
sbag1
(g16
g3
Ntp543
Rp544
(dp545
g20
F0.9328715801239014
sg21
F332.5
sg22
F213.5
sg23
I-1
sg24
I-1
sg25
I119
sg26
F0.9328715801239014
sg13
I39
sg27
I273
sg28
I33
sg29
g30
sg31
g30
sg32
F52.5
sg33
g30
sg34
F13.5
sbag1
(g16
g3
Ntp546
Rp547
(dp548
g20
F0.9968979358673096
sg21
F357.5
sg22
F188.5
sg23
I-1
sg24
I-1
sg25
I169
sg26
F0.9966195821762085
sg13
I64
sg27
I273
sg28
I57
sg29
g30
sg31
g30
sg32
F89.0
sg33
g30
sg34
F25.0
sbag1
(g16
g3
Ntp549
Rp550
(dp551
g20
F0.9846220016479492
sg21
F355.0
sg22
F195.0
sg23
I-1
sg24
I-1
sg25
I160
sg26
F0.8075957894325256
sg13
I60
sg27
I275
sg28
I187
sg29
g30
sg31
g30
sg32
F217.0
sg33
g30
sg34
F157.0
sbag1
(g16
g3
Ntp552
Rp553
(dp554
g20
F0.98604416847229
sg21
F338.5
sg22
F191.5
sg23
I-1
sg24
I-1
sg25
I147
sg26
F0.9847354888916016
sg13
I50
sg27
I265
sg28
I286
sg29
g30
sg31
g30
sg32
F311.0
sg33
g30
sg34
F261.0
sbag1
(g16
g3
Ntp555
Rp556
(dp557
g20
F0.6933991312980652
sg21
F252.0
sg22
F208.0
sg23
I-1
sg24
I-1
sg25
I44
sg26
F0.6933991312980652
sg13
I13
sg27
I230
sg28
I138
sg29
g30
sg31
g30
sg32
F144.5
sg33
g30
sg34
F131.5
sbag1
(g16
g3
Ntp558
Rp559
(dp560
g20
F0.2599143981933594
sg21
F338.0
sg22
F200.0
sg23
I-1
sg24
I-1
sg25
I138
sg26
F0.2599143981933594
sg13
I47
sg27
I269
sg28
I315
sg29
g30
sg31
g30
sg32
F338.5
sg33
g30
sg34
F291.5
sbasg50
g9
sg25
I-1
sg51
g9
sbag1
(g2
g3
Ntp561
Rp562
(dp563
g7
I-1
sg8
g9
sg10
I20
sg11
S'TUD-Crossing/frames_tensorbox/000021.jpg'
p564
sg13
I-1
sg14
(lp565
g1
(g16
g3
Ntp566
Rp567
(dp568
g20
F0.9982733726501465
sg21
F336.0
sg22
F174.0
sg23
I-1
sg24
I-1
sg25
I162
sg26
F0.9982733726501465
sg13
I69
sg27
I255
sg28
I549
sg29
g30
sg31
g30
sg32
F583.5
sg33
g30
sg34
F514.5
sbag1
(g16
g3
Ntp569
Rp570
(dp571
g20
F0.996256947517395
sg21
F358.0
sg22
F186.0
sg23
I-1
sg24
I-1
sg25
I172
sg26
F0.9954250454902649
sg13
I59
sg27
I272
sg28
I202
sg29
g30
sg31
g30
sg32
F231.5
sg33
g30
sg34
F172.5
sbag1
(g16
g3
Ntp572
Rp573
(dp574
g20
F0.9216609001159668
sg21
F362.5
sg22
F195.5
sg23
I-1
sg24
I-1
sg25
I167
sg26
F0.9216609001159668
sg13
I61
sg27
I279
sg28
I188
sg29
g30
sg31
g30
sg32
F218.5
sg33
g30
sg34
F157.5
sbag1
(g16
g3
Ntp575
Rp576
(dp577
g20
F0.9316194653511047
sg21
F336.5
sg22
F201.5
sg23
I-1
sg24
I-1
sg25
I135
sg26
F0.9316194653511047
sg13
I43
sg27
I269
sg28
I323
sg29
g30
sg31
g30
sg32
F344.5
sg33
g30
sg34
F301.5
sbag1
(g16
g3
Ntp578
Rp579
(dp580
g20
F0.9992054104804993
sg21
F361.5
sg22
F172.5
sg23
I-1
sg24
I-1
sg25
I189
sg26
F0.9991231560707092
sg13
I76
sg27
I267
sg28
I373
sg29
g30
sg31
g30
sg32
F411.0
sg33
g30
sg34
F335.0
sbag1
(g16
g3
Ntp581
Rp582
(dp583
g20
F0.99772709608078
sg21
F357.5
sg22
F190.5
sg23
I-1
sg24
I-1
sg25
I167
sg26
F0.9974824786186218
sg13
I69
sg27
I274
sg28
I60
sg29
g30
sg31
g30
sg32
F94.5
sg33
g30
sg34
F25.5
sbag1
(g16
g3
Ntp584
Rp585
(dp586
g20
F0.9788970947265625
sg21
F324.5
sg22
F197.5
sg23
I-1
sg24
I-1
sg25
I127
sg26
F0.9779793620109558
sg13
I37
sg27
I261
sg28
I286
sg29
g30
sg31
g30
sg32
F304.5
sg33
g30
sg34
F267.5
sbag1
(g16
g3
Ntp587
Rp588
(dp589
g20
F0.7006361484527588
sg21
F337.5
sg22
F204.5
sg23
I-1
sg24
I-1
sg25
I133
sg26
F0.7006361484527588
sg13
I46
sg27
I271
sg28
I9
sg29
g30
sg31
g30
sg32
F32.0
sg33
g30
sg34
F-14.0
sbag1
(g16
g3
Ntp590
Rp591
(dp592
g20
F0.536527693271637
sg21
F245.5
sg22
F210.5
sg23
I-1
sg24
I-1
sg25
I35
sg26
F0.5113445520401001
sg13
I11
sg27
I228
sg28
I124
sg29
g30
sg31
g30
sg32
F129.5
sg33
g30
sg34
F118.5
sbag1
(g16
g3
Ntp593
Rp594
(dp595
g20
F0.5650668144226074
sg21
F330.0
sg22
F216.0
sg23
I-1
sg24
I-1
sg25
I114
sg26
F0.5650668144226074
sg13
I43
sg27
I273
sg28
I40
sg29
g30
sg31
g30
sg32
F61.5
sg33
g30
sg34
F18.5
sbag1
(g16
g3
Ntp596
Rp597
(dp598
g20
F0.46515750885009766
sg21
F297.0
sg22
F191.0
sg23
I-1
sg24
I-1
sg25
I106
sg26
F0.46515750885009766
sg13
I39
sg27
I244
sg28
I97
sg29
g30
sg31
g30
sg32
F116.5
sg33
g30
sg34
F77.5
sbag1
(g16
g3
Ntp599
Rp600
(dp601
g20
F0.3012430667877197
sg21
F311.0
sg22
F191.0
sg23
I-1
sg24
I-1
sg25
I120
sg26
F0.3012430667877197
sg13
I40
sg27
I251
sg28
I161
sg29
g30
sg31
g30
sg32
F181.0
sg33
g30
sg34
F141.0
sbasg50
g9
sg25
I-1
sg51
g9
sbag1
(g2
g3
Ntp602
Rp603
(dp604
g7
I-1
sg8
g9
sg10
I21
sg11
S'TUD-Crossing/frames_tensorbox/000022.jpg'
p605
sg13
I-1
sg14
(lp606
g1
(g16
g3
Ntp607
Rp608
(dp609
g20
F0.808168888092041
sg21
F341.5
sg22
F178.5
sg23
I-1
sg24
I-1
sg25
I163
sg26
F0.808168888092041
sg13
I64
sg27
I260
sg28
I330
sg29
g30
sg31
g30
sg32
F362.0
sg33
g30
sg34
F298.0
sbag1
(g16
g3
Ntp610
Rp611
(dp612
g20
F0.9690560102462769
sg21
F356.0
sg22
F194.0
sg23
I-1
sg24
I-1
sg25
I162
sg26
F0.9690560102462769
sg13
I55
sg27
I275
sg28
I9
sg29
g30
sg31
g30
sg32
F36.5
sg33
g30
sg34
F-18.5
sbag1
(g16
g3
Ntp613
Rp614
(dp615
g20
F0.9961060881614685
sg21
F363.0
sg22
F189.0
sg23
I-1
sg24
I-1
sg25
I174
sg26
F0.9711460471153259
sg13
I58
sg27
I276
sg28
I202
sg29
g30
sg31
g30
sg32
F231.0
sg33
g30
sg34
F173.0
sbag1
(g16
g3
Ntp616
Rp617
(dp618
g20
F0.9907975196838379
sg21
F343.0
sg22
F185.0
sg23
I-1
sg24
I-1
sg25
I158
sg26
F0.986386775970459
sg13
I52
sg27
I264
sg28
I306
sg29
g30
sg31
g30
sg32
F332.0
sg33
g30
sg34
F280.0
sbag1
(g16
g3
Ntp619
Rp620
(dp621
g20
F0.999319314956665
sg21
F361.0
sg22
F171.0
sg23
I-1
sg24
I-1
sg25
I190
sg26
F0.9992409944534302
sg13
I78
sg27
I266
sg28
I377
sg29
g30
sg31
g30
sg32
F416.0
sg33
g30
sg34
F338.0
sbag1
(g16
g3
Ntp622
Rp623
(dp624
g20
F0.9974263310432434
sg21
F328.5
sg22
F179.5
sg23
I-1
sg24
I-1
sg25
I149
sg26
F0.9970130920410156
sg13
I60
sg27
I254
sg28
I556
sg29
g30
sg31
g30
sg32
F586.0
sg33
g30
sg34
F526.0
sbag1
(g16
g3
Ntp625
Rp626
(dp627
g20
F0.9984737038612366
sg21
F355.0
sg22
F191.0
sg23
I-1
sg24
I-1
sg25
I164
sg26
F0.99819415807724
sg13
I71
sg27
I273
sg28
I64
sg29
g30
sg31
g30
sg32
F99.5
sg33
g30
sg34
F28.5
sbag1
(g16
g3
Ntp628
Rp629
(dp630
g20
F0.9819762706756592
sg21
F353.0
sg22
F207.0
sg23
I-1
sg24
I-1
sg25
I146
sg26
F0.8784568905830383
sg13
I49
sg27
I280
sg28
I204
sg29
g30
sg31
g30
sg32
F228.5
sg33
g30
sg34
F179.5
sbag1
(g16
g3
Ntp631
Rp632
(dp633
g20
F0.4905208647251129
sg21
F239.5
sg22
F208.5
sg23
I-1
sg24
I-1
sg25
I31
sg26
F0.4905208647251129
sg13
I11
sg27
I224
sg28
I120
sg29
g30
sg31
g30
sg32
F125.5
sg33
g30
sg34
F114.5
sbag1
(g16
g3
Ntp634
Rp635
(dp636
g20
F0.3906444013118744
sg21
F234.0
sg22
F206.0
sg23
I-1
sg24
I-1
sg25
I28
sg26
F0.3906444013118744
sg13
I10
sg27
I220
sg28
I132
sg29
g30
sg31
g30
sg32
F137.0
sg33
g30
sg34
F127.0
sbag1
(g16
g3
Ntp637
Rp638
(dp639
g20
F0.20564499497413635
sg21
F241.0
sg22
F209.0
sg23
I-1
sg24
I-1
sg25
I32
sg26
F0.20564499497413635
sg13
I10
sg27
I225
sg28
I119
sg29
g30
sg31
g30
sg32
F124.0
sg33
g30
sg34
F114.0
sbasg50
g9
sg25
I-1
sg51
g9
sbag1
(g2
g3
Ntp640
Rp641
(dp642
g7
I-1
sg8
g9
sg10
I22
sg11
S'TUD-Crossing/frames_tensorbox/000023.jpg'
p643
sg13
I-1
sg14
(lp644
g1
(g16
g3
Ntp645
Rp646
(dp647
g20
F0.9975031018257141
sg21
F332.0
sg22
F172.0
sg23
I-1
sg24
I-1
sg25
I160
sg26
F0.9937567710876465
sg13
I54
sg27
I252
sg28
I560
sg29
g30
sg31
g30
sg32
F587.0
sg33
g30
sg34
F533.0
sbag1
(g16
g3
Ntp648
Rp649
(dp650
g20
F0.9994148015975952
sg21
F363.0
sg22
F167.0
sg23
I-1
sg24
I-1
sg25
I196
sg26
F0.9986987113952637
sg13
I80
sg27
I265
sg28
I382
sg29
g30
sg31
g30
sg32
F422.0
sg33
g30
sg34
F342.0
sbag1
(g16
g3
Ntp651
Rp652
(dp653
g20
F0.9694780707359314
sg21
F351.0
sg22
F201.0
sg23
I-1
sg24
I-1
sg25
I150
sg26
F0.9611643552780151
sg13
I55
sg27
I276
sg28
I20
sg29
g30
sg31
g30
sg32
F47.5
sg33
g30
sg34
F-7.5
sbag1
(g16
g3
Ntp654
Rp655
(dp656
g20
F0.9983322024345398
sg21
F355.0
sg22
F189.0
sg23
I-1
sg24
I-1
sg25
I166
sg26
F0.997535228729248
sg13
I71
sg27
I272
sg28
I66
sg29
g30
sg31
g30
sg32
F101.5
sg33
g30
sg34
F30.5
sbag1
(g16
g3
Ntp657
Rp658
(dp659
g20
F0.8260267972946167
sg21
F341.5
sg22
F200.5
sg23
I-1
sg24
I-1
sg25
I141
sg26
F0.8260267972946167
sg13
I50
sg27
I271
sg28
I204
sg29
g30
sg31
g30
sg32
F229.0
sg33
g30
sg34
F179.0
sbag1
(g16
g3
Ntp660
Rp661
(dp662
g20
F0.9981538653373718
sg21
F363.5
sg22
F180.5
sg23
I-1
sg24
I-1
sg25
I183
sg26
F0.9977437257766724
sg13
I63
sg27
I272
sg28
I215
sg29
g30
sg31
g30
sg32
F246.5
sg33
g30
sg34
F183.5
sbag1
(g16
g3
Ntp663
Rp664
(dp665
g20
F0.9931446313858032
sg21
F335.5
sg22
F174.5
sg23
I-1
sg24
I-1
sg25
I161
sg26
F0.99007648229599
sg13
I49
sg27
I255
sg28
I312
sg29
g30
sg31
g30
sg32
F336.5
sg33
g30
sg34
F287.5
sbag1
(g16
g3
Ntp666
Rp667
(dp668
g20
F0.5093868374824524
sg21
F241.0
sg22
F207.0
sg23
I-1
sg24
I-1
sg25
I34
sg26
F0.5093868374824524
sg13
I11
sg27
I224
sg28
I123
sg29
g30
sg31
g30
sg32
F128.5
sg33
g30
sg34
F117.5
sbag1
(g16
g3
Ntp669
Rp670
(dp671
g20
F0.45004552602767944
sg21
F243.5
sg22
F208.5
sg23
I-1
sg24
I-1
sg25
I35
sg26
F0.45004552602767944
sg13
I13
sg27
I226
sg28
I110
sg29
g30
sg31
g30
sg32
F116.5
sg33
g30
sg34
F103.5
sbag1
(g16
g3
Ntp672
Rp673
(dp674
g20
F0.4745398759841919
sg21
F232.5
sg22
F207.5
sg23
I-1
sg24
I-1
sg25
I25
sg26
F0.4745398759841919
sg13
I10
sg27
I220
sg28
I136
sg29
g30
sg31
g30
sg32
F141.0
sg33
g30
sg34
F131.0
sbag1
(g16
g3
Ntp675
Rp676
(dp677
g20
F0.4711822271347046
sg21
F240.5
sg22
F211.5
sg23
I-1
sg24
I-1
sg25
I29
sg26
F0.4711822271347046
sg13
I11
sg27
I226
sg28
I119
sg29
g30
sg31
g30
sg32
F124.5
sg33
g30
sg34
F113.5
sbasg50
g9
sg25
I-1
sg51
g9
sbag1
(g2
g3
Ntp678
Rp679
(dp680
g7
I-1
sg8
g9
sg10
I23
sg11
S'TUD-Crossing/frames_tensorbox/000024.jpg'
p681
sg13
I-1
sg14
(lp682
g1
(g16
g3
Ntp683
Rp684
(dp685
g20
F0.9968543648719788
sg21
F335.0
sg22
F169.0
sg23
I-1
sg24
I-1
sg25
I166
sg26
F0.9295027256011963
sg13
I49
sg27
I252
sg28
I565
sg29
g30
sg31
g30
sg32
F589.5
sg33
g30
sg34
F540.5
sbag1
(g16
g3
Ntp686
Rp687
(dp688
g20
F0.9992820620536804
sg21
F360.0
sg22
F170.0
sg23
I-1
sg24
I-1
sg25
I190
sg26
F0.9958588480949402
sg13
I77
sg27
I265
sg28
I386
sg29
g30
sg31
g30
sg32
F424.5
sg33
g30
sg34
F347.5
sbag1
(g16
g3
Ntp689
Rp690
(dp691
g20
F0.989403486251831
sg21
F347.0
sg22
F191.0
sg23
I-1
sg24
I-1
sg25
I156
sg26
F0.9887579679489136
sg13
I60
sg27
I269
sg28
I31
sg29
g30
sg31
g30
sg32
F61.0
sg33
g30
sg34
F1.0
sbag1
(g16
g3
Ntp692
Rp693
(dp694
g20
F0.9977641105651855
sg21
F349.0
sg22
F191.0
sg23
I-1
sg24
I-1
sg25
I158
sg26
F0.9954153299331665
sg13
I67
sg27
I270
sg28
I72
sg29
g30
sg31
g30
sg32
F105.5
sg33
g30
sg34
F38.5
sbag1
(g16
g3
Ntp695
Rp696
(dp697
g20
F0.9990358352661133
sg21
F366.0
sg22
F180.0
sg23
I-1
sg24
I-1
sg25
I186
sg26
F0.9985761642456055
sg13
I65
sg27
I273
sg28
I218
sg29
g30
sg31
g30
sg32
F250.5
sg33
g30
sg34
F185.5
sbag1
(g16
g3
Ntp698
Rp699
(dp700
g20
F0.9950114488601685
sg21
F334.5
sg22
F177.5
sg23
I-1
sg24
I-1
sg25
I157
sg26
F0.9935718774795532
sg13
I52
sg27
I256
sg28
I316
sg29
g30
sg31
g30
sg32
F342.0
sg33
g30
sg34
F290.0
sbag1
(g16
g3
Ntp701
Rp702
(dp703
g20
F0.5019797682762146
sg21
F234.5
sg22
F207.5
sg23
I-1
sg24
I-1
sg25
I27
sg26
F0.5019797682762146
sg13
I10
sg27
I221
sg28
I141
sg29
g30
sg31
g30
sg32
F146.0
sg33
g30
sg34
F136.0
sbag1
(g16
g3
Ntp704
Rp705
(dp706
g20
F0.3779282867908478
sg21
F238.5
sg22
F209.5
sg23
I-1
sg24
I-1
sg25
I29
sg26
F0.3779282867908478
sg13
I10
sg27
I224
sg28
I125
sg29
g30
sg31
g30
sg32
F130.0
sg33
g30
sg34
F120.0
sbag1
(g16
g3
Ntp707
Rp708
(dp709
g20
F0.2733423113822937
sg21
F239.0
sg22
F213.0
sg23
I-1
sg24
I-1
sg25
I26
sg26
F0.2733423113822937
sg13
I11
sg27
I226
sg28
I114
sg29
g30
sg31
g30
sg32
F119.5
sg33
g30
sg34
F108.5
sbasg50
g9
sg25
I-1
sg51
g9
sbag1
(g2
g3
Ntp710
Rp711
(dp712
g7
I-1
sg8
g9
sg10
I24
sg11
S'TUD-Crossing/frames_tensorbox/000025.jpg'
p713
sg13
I-1
sg14
(lp714
g1
(g16
g3
Ntp715
Rp716
(dp717
g20
F0.9968710541725159
sg21
F336.5
sg22
F165.5
sg23
I-1
sg24
I-1
sg25
I171
sg26
F0.9957829713821411
sg13
I50
sg27
I251
sg28
I572
sg29
g30
sg31
g30
sg32
F597.0
sg33
g30
sg34
F547.0
sbag1
(g16
g3
Ntp718
Rp719
(dp720
g20
F0.9914103150367737
sg21
F359.0
sg22
F189.0
sg23
I-1
sg24
I-1
sg25
I170
sg26
F0.9888450503349304
sg13
I57
sg27
I274
sg28
I24
sg29
g30
sg31
g30
sg32
F52.5
sg33
g30
sg34
F-4.5
sbag1
(g16
g3
Ntp721
Rp722
(dp723
g20
F0.9974027276039124
sg21
F336.5
sg22
F183.5
sg23
I-1
sg24
I-1
sg25
I153
sg26
F0.9925359487533569
sg13
I56
sg27
I260
sg28
I314
sg29
g30
sg31
g30
sg32
F342.0
sg33
g30
sg34
F286.0
sbag1
(g16
g3
Ntp724
Rp725
(dp726
g20
F0.9850739240646362
sg21
F361.5
sg22
F176.5
sg23
I-1
sg24
I-1
sg25
I185
sg26
F0.9850739240646362
sg13
I77
sg27
I269
sg28
I370
sg29
g30
sg31
g30
sg32
F408.5
sg33
g30
sg34
F331.5
sbag1
(g16
g3
Ntp727
Rp728
(dp729
g20
F0.9980700612068176
sg21
F353.5
sg22
F186.5
sg23
I-1
sg24
I-1
sg25
I167
sg26
F0.9968057870864868
sg13
I69
sg27
I270
sg28
I78
sg29
g30
sg31
g30
sg32
F112.5
sg33
g30
sg34
F43.5
sbag1
(g16
g3
Ntp730
Rp731
(dp732
g20
F0.9987872242927551
sg21
F365.5
sg22
F178.5
sg23
I-1
sg24
I-1
sg25
I187
sg26
F0.998602569103241
sg13
I68
sg27
I272
sg28
I219
sg29
g30
sg31
g30
sg32
F253.0
sg33
g30
sg34
F185.0
sbag1
(g16
g3
Ntp733
Rp734
(dp735
g20
F0.7792184352874756
sg21
F355.0
sg22
F181.0
sg23
I-1
sg24
I-1
sg25
I174
sg26
F0.7792184352874756
sg13
I64
sg27
I268
sg28
I277
sg29
g30
sg31
g30
sg32
F309.0
sg33
g30
sg34
F245.0
sbag1
(g16
g3
Ntp736
Rp737
(dp738
g20
F0.6654446125030518
sg21
F341.0
sg22
F189.0
sg23
I-1
sg24
I-1
sg25
I152
sg26
F0.6654446125030518
sg13
I54
sg27
I265
sg28
I205
sg29
g30
sg31
g30
sg32
F232.0
sg33
g30
sg34
F178.0
sbag1
(g16
g3
Ntp739
Rp740
(dp741
g20
F0.5437659025192261
sg21
F234.5
sg22
F205.5
sg23
I-1
sg24
I-1
sg25
I29
sg26
F0.5437659025192261
sg13
I10
sg27
I220
sg28
I143
sg29
g30
sg31
g30
sg32
F148.0
sg33
g30
sg34
F138.0
sbag1
(g16
g3
Ntp742
Rp743
(dp744
g20
F0.20247265696525574
sg21
F242.0
sg22
F218.0
sg23
I-1
sg24
I-1
sg25
I24
sg26
F0.20247265696525574
sg13
I9
sg27
I230
sg28
I126
sg29
g30
sg31
g30
sg32
F130.5
sg33
g30
sg34
F121.5
sbasg50
g9
sg25
I-1
sg51
g9
sbag1
(g2
g3
Ntp745
Rp746
(dp747
g7
I-1
sg8
g9
sg10
I25
sg11
S'TUD-Crossing/frames_tensorbox/000026.jpg'
p748
sg13
I-1
sg14
(lp749
g1
(g16
g3
Ntp750
Rp751
(dp752
g20
F0.996809184551239
sg21
F336.5
sg22
F167.5
sg23
I-1
sg24
I-1
sg25
I169
sg26
F0.9944050312042236
sg13
I47
sg27
I252
sg28
I576
sg29
g30
sg31
g30
sg32
F599.5
sg33
g30
sg34
F552.5
sbag1
(g16
g3
Ntp753
Rp754
(dp755
g20
F0.9959691762924194
sg21
F358.0
sg22
F184.0
sg23
I-1
sg24
I-1
sg25
I174
sg26
F0.9959691762924194
sg13
I55
sg27
I271
sg28
I26
sg29
g30
sg31
g30
sg32
F53.5
sg33
g30
sg34
F-1.5
sbag1
(g16
g3
Ntp756
Rp757
(dp758
g20
F0.996908962726593
sg21
F338.0
sg22
F188.0
sg23
I-1
sg24
I-1
sg25
I150
sg26
F0.9801244735717773
sg13
I61
sg27
I263
sg28
I318
sg29
g30
sg31
g30
sg32
F348.5
sg33
g30
sg34
F287.5
sbag1
(g16
g3
Ntp759
Rp760
(dp761
g20
F0.9989927411079407
sg21
F359.5
sg22
F170.5
sg23
I-1
sg24
I-1
sg25
I189
sg26
F0.9964481592178345
sg13
I68
sg27
I265
sg28
I400
sg29
g30
sg31
g30
sg32
F434.0
sg33
g30
sg34
F366.0
sbag1
(g16
g3
Ntp762
Rp763
(dp764
g20
F0.9973374009132385
sg21
F353.5
sg22
F186.5
sg23
I-1
sg24
I-1
sg25
I167
sg26
F0.9968113303184509
sg13
I60
sg27
I270
sg28
I82
sg29
g30
sg31
g30
sg32
F112.0
sg33
g30
sg34
F52.0
sbag1
(g16
g3
Ntp765
Rp766
(dp767
g20
F0.9990100860595703
sg21
F365.0
sg22
F177.0
sg23
I-1
sg24
I-1
sg25
I188
sg26
F0.9989970326423645
sg13
I72
sg27
I271
sg28
I221
sg29
g30
sg31
g30
sg32
F257.0
sg33
g30
sg34
F185.0
sbag1
(g16
g3
Ntp768
Rp769
(dp770
g20
F0.6314297318458557
sg21
F235.5
sg22
F206.5
sg23
I-1
sg24
I-1
sg25
I29
sg26
F0.6314297318458557
sg13
I10
sg27
I221
sg28
I139
sg29
g30
sg31
g30
sg32
F144.0
sg33
g30
sg34
F134.0
sbag1
(g16
g3
Ntp771
Rp772
(dp773
g20
F0.36232826113700867
sg21
F343.0
sg22
F191.0
sg23
I-1
sg24
I-1
sg25
I152
sg26
F0.36232826113700867
sg13
I58
sg27
I267
sg28
I204
sg29
g30
sg31
g30
sg32
F233.0
sg33
g30
sg34
F175.0
sbasg50
g9
sg25
I-1
sg51
g9
sbag1
(g2
g3
Ntp774
Rp775
(dp776
g7
I-1
sg8
g9
sg10
I26
sg11
S'TUD-Crossing/frames_tensorbox/000027.jpg'
p777
sg13
I-1
sg14
(lp778
g1
(g16
g3
Ntp779
Rp780
(dp781
g20
F0.997715950012207
sg21
F351.0
sg22
F187.0
sg23
I-1
sg24
I-1
sg25
I164
sg26
F0.997715950012207
sg13
I62
sg27
I269
sg28
I30
sg29
g30
sg31
g30
sg32
F61.0
sg33
g30
sg34
F-1.0
sbag1
(g16
g3
Ntp782
Rp783
(dp784
g20
F0.9955183267593384
sg21
F339.0
sg22
F187.0
sg23
I-1
sg24
I-1
sg25
I152
sg26
F0.9830447435379028
sg13
I68
sg27
I263
sg28
I324
sg29
g30
sg31
g30
sg32
F358.0
sg33
g30
sg34
F290.0
sbag1
(g16
g3
Ntp785
Rp786
(dp787
g20
F0.9991286396980286
sg21
F366.5
sg22
F165.5
sg23
I-1
sg24
I-1
sg25
I201
sg26
F0.9990867376327515
sg13
I66
sg27
I266
sg28
I405
sg29
g30
sg31
g30
sg32
F438.0
sg33
g30
sg34
F372.0
sbag1
(g16
g3
Ntp788
Rp789
(dp790
g20
F0.9966148734092712
sg21
F331.0
sg22
F169.0
sg23
I-1
sg24
I-1
sg25
I162
sg26
F0.9966013431549072
sg13
I44
sg27
I250
sg28
I580
sg29
g30
sg31
g30
sg32
F602.0
sg33
g30
sg34
F558.0
sbag1
(g16
g3
Ntp791
Rp792
(dp793
g20
F0.9968979358673096
sg21
F354.0
sg22
F186.0
sg23
I-1
sg24
I-1
sg25
I168
sg26
F0.9959585070610046
sg13
I62
sg27
I270
sg28
I83
sg29
g30
sg31
g30
sg32
F114.0
sg33
g30
sg34
F52.0
sbag1
(g16
g3
Ntp794
Rp795
(dp796
g20
F0.9988821148872375
sg21
F364.5
sg22
F179.5
sg23
I-1
sg24
I-1
sg25
I185
sg26
F0.9987902045249939
sg13
I72
sg27
I272
sg28
I226
sg29
g30
sg31
g30
sg32
F262.0
sg33
g30
sg34
F190.0
sbag1
(g16
g3
Ntp797
Rp798
(dp799
g20
F0.5473222732543945
sg21
F233.5
sg22
F202.5
sg23
I-1
sg24
I-1
sg25
I31
sg26
F0.5473222732543945
sg13
I11
sg27
I218
sg28
I144
sg29
g30
sg31
g30
sg32
F149.5
sg33
g30
sg34
F138.5
sbag1
(g16
g3
Ntp800
Rp801
(dp802
g20
F0.26148468255996704
sg21
F341.5
sg22
F194.5
sg23
I-1
sg24
I-1
sg25
I147
sg26
F0.26148468255996704
sg13
I56
sg27
I268
sg28
I208
sg29
g30
sg31
g30
sg32
F236.0
sg33
g30
sg34
F180.0
sbasg50
g9
sg25
I-1
sg51
g9
sbag1
(g2
g3
Ntp803
Rp804
(dp805
g7
I-1
sg8
g9
sg10
I27
sg11
S'TUD-Crossing/frames_tensorbox/000028.jpg'
p806
sg13
I-1
sg14
(lp807
g1
(g16
g3
Ntp808
Rp809
(dp810
g20
F0.9986962676048279
sg21
F357.5
sg22
F186.5
sg23
I-1
sg24
I-1
sg25
I171
sg26
F0.9986962676048279
sg13
I67
sg27
I272
sg28
I33
sg29
g30
sg31
g30
sg32
F66.5
sg33
g30
sg34
F-0.5
sbag1
(g16
g3
Ntp811
Rp812
(dp813
g20
F0.9991807341575623
sg21
F362.5
sg22
F169.5
sg23
I-1
sg24
I-1
sg25
I193
sg26
F0.9990383386611938
sg13
I63
sg27
I266
sg28
I411
sg29
g30
sg31
g30
sg32
F442.5
sg33
g30
sg34
F379.5
sbag1
(g16
g3
Ntp814
Rp815
(dp816
g20
F0.9980827569961548
sg21
F364.0
sg22
F178.0
sg23
I-1
sg24
I-1
sg25
I186
sg26
F0.9979934692382812
sg13
I71
sg27
I271
sg28
I230
sg29
g30
sg31
g30
sg32
F265.5
sg33
g30
sg34
F194.5
sbag1
(g16
g3
Ntp817
Rp818
(dp819
g20
F0.9967108964920044
sg21
F332.5
sg22
F191.5
sg23
I-1
sg24
I-1
sg25
I141
sg26
F0.9961142539978027
sg13
I70
sg27
I262
sg28
I328
sg29
g30
sg31
g30
sg32
F363.0
sg33
g30
sg34
F293.0
sbag1
(g16
g3
Ntp820
Rp821
(dp822
g20
F0.9955857992172241
sg21
F329.5
sg22
F168.5
sg23
I-1
sg24
I-1
sg25
I161
sg26
F0.9936542510986328
sg13
I50
sg27
I249
sg28
I583
sg29
g30
sg31
g30
sg32
F608.0
sg33
g30
sg34
F558.0
sbag1
(g16
g3
Ntp823
Rp824
(dp825
g20
F0.9954919815063477
sg21
F352.5
sg22
F189.5
sg23
I-1
sg24
I-1
sg25
I163
sg26
F0.9952493906021118
sg13
I57
sg27
I271
sg28
I88
sg29
g30
sg31
g30
sg32
F116.5
sg33
g30
sg34
F59.5
sbag1
(g16
g3
Ntp826
Rp827
(dp828
g20
F0.9712395668029785
sg21
F352.0
sg22
F178.0
sg23
I-1
sg24
I-1
sg25
I174
sg26
F0.9040746092796326
sg13
I65
sg27
I265
sg28
I219
sg29
g30
sg31
g30
sg32
F251.5
sg33
g30
sg34
F186.5
sbag1
(g16
g3
Ntp829
Rp830
(dp831
g20
F0.896892249584198
sg21
F419.5
sg22
F108.5
sg23
I-1
sg24
I-1
sg25
I311
sg26
F0.896892249584198
sg13
I94
sg27
I264
sg28
I647
sg29
g30
sg31
g30
sg32
F694.0
sg33
g30
sg34
F600.0
sbag1
(g16
g3
Ntp832
Rp833
(dp834
g20
F0.9274248480796814
sg21
F350.5
sg22
F183.5
sg23
I-1
sg24
I-1
sg25
I167
sg26
F0.9274248480796814
sg13
I63
sg27
I267
sg28
I368
sg29
g30
sg31
g30
sg32
F399.5
sg33
g30
sg34
F336.5
sbag1
(g16
g3
Ntp835
Rp836
(dp837
g20
F0.526811420917511
sg21
F236.0
sg22
F206.0
sg23
I-1
sg24
I-1
sg25
I30
sg26
F0.526811420917511
sg13
I10
sg27
I221
sg28
I143
sg29
g30
sg31
g30
sg32
F148.0
sg33
g30
sg34
F138.0
sbasg50
g9
sg25
I-1
sg51
g9
sbag1
(g2
g3
Ntp838
Rp839
(dp840
g7
I-1
sg8
g9
sg10
I28
sg11
S'TUD-Crossing/frames_tensorbox/000029.jpg'
p841
sg13
I-1
sg14
(lp842
g1
(g16
g3
Ntp843
Rp844
(dp845
g20
F0.9926950931549072
sg21
F329.5
sg22
F170.5
sg23
I-1
sg24
I-1
sg25
I159
sg26
F0.9851716160774231
sg13
I53
sg27
I250
sg28
I591
sg29
g30
sg31
g30
sg32
F617.5
sg33
g30
sg34
F564.5
sbag1
(g16
g3
Ntp846
Rp847
(dp848
g20
F0.9982682466506958
sg21
F363.5
sg22
F184.5
sg23
I-1
sg24
I-1
sg25
I179
sg26
F0.9982682466506958
sg13
I69
sg27
I274
sg28
I35
sg29
g30
sg31
g30
sg32
F69.5
sg33
g30
sg34
F0.5
sbag1
(g16
g3
Ntp849
Rp850
(dp851
g20
F0.9994327425956726
sg21
F362.0
sg22
F170.0
sg23
I-1
sg24
I-1
sg25
I192
sg26
F0.9994327425956726
sg13
I70
sg27
I266
sg28
I418
sg29
g30
sg31
g30
sg32
F453.0
sg33
g30
sg34
F383.0
sbag1
(g16
g3
Ntp852
Rp853
(dp854
g20
F0.9931244254112244
sg21
F323.0
sg22
F199.0
sg23
I-1
sg24
I-1
sg25
I124
sg26
F0.9923183917999268
sg13
I62
sg27
I261
sg28
I339
sg29
g30
sg31
g30
sg32
F370.0
sg33
g30
sg34
F308.0
sbag1
(g16
g3
Ntp855
Rp856
(dp857
g20
F0.9225432276725769
sg21
F344.5
sg22
F187.5
sg23
I-1
sg24
I-1
sg25
I157
sg26
F0.9169480204582214
sg13
I67
sg27
I266
sg28
I373
sg29
g30
sg31
g30
sg32
F406.5
sg33
g30
sg34
F339.5
sbag1
(g16
g3
Ntp858
Rp859
(dp860
g20
F0.9932704567909241
sg21
F368.0
sg22
F156.0
sg23
I-1
sg24
I-1
sg25
I212
sg26
F0.9928272366523743
sg13
I68
sg27
I262
sg28
I611
sg29
g30
sg31
g30
sg32
F645.0
sg33
g30
sg34
F577.0
sbag1
(g16
g3
Ntp861
Rp862
(dp863
g20
F0.9933773875236511
sg21
F349.5
sg22
F186.5
sg23
I-1
sg24
I-1
sg25
I163
sg26
F0.9933454990386963
sg13
I51
sg27
I268
sg28
I93
sg29
g30
sg31
g30
sg32
F118.5
sg33
g30
sg34
F67.5
sbag1
(g16
g3
Ntp864
Rp865
(dp866
g20
F0.9978169202804565
sg21
F358.5
sg22
F179.5
sg23
I-1
sg24
I-1
sg25
I179
sg26
F0.9975996613502502
sg13
I64
sg27
I269
sg28
I233
sg29
g30
sg31
g30
sg32
F265.0
sg33
g30
sg34
F201.0
sbag1
(g16
g3
Ntp867
Rp868
(dp869
g20
F0.6708168387413025
sg21
F348.0
sg22
F200.0
sg23
I-1
sg24
I-1
sg25
I148
sg26
F0.6708168387413025
sg13
I57
sg27
I274
sg28
I224
sg29
g30
sg31
g30
sg32
F252.5
sg33
g30
sg34
F195.5
sbag1
(g16
g3
Ntp870
Rp871
(dp872
g20
F0.22954124212265015
sg21
F304.0
sg22
F212.0
sg23
I-1
sg24
I-1
sg25
I92
sg26
F0.22954124212265015
sg13
I31
sg27
I258
sg28
I91
sg29
g30
sg31
g30
sg32
F106.5
sg33
g30
sg34
F75.5
sbasg50
g9
sg25
I-1
sg51
g9
sbag1
(g2
g3
Ntp873
Rp874
(dp875
g7
I-1
sg8
g9
sg10
I29
sg11
S'TUD-Crossing/frames_tensorbox/000030.jpg'
p876
sg13
I-1
sg14
(lp877
g1
(g16
g3
Ntp878
Rp879
(dp880
g20
F0.9953159093856812
sg21
F340.0
sg22
F170.0
sg23
I-1
sg24
I-1
sg25
I170
sg26
F0.9868258833885193
sg13
I60
sg27
I255
sg28
I596
sg29
g30
sg31
g30
sg32
F626.0
sg33
g30
sg34
F566.0
sbag1
(g16
g3
Ntp881
Rp882
(dp883
g20
F0.9284249544143677
sg21
F317.5
sg22
F204.5
sg23
I-1
sg24
I-1
sg25
I113
sg26
F0.9277451038360596
sg13
I63
sg27
I261
sg28
I345
sg29
g30
sg31
g30
sg32
F376.5
sg33
g30
sg34
F313.5
sbag1
(g16
g3
Ntp884
Rp885
(dp886
g20
F0.8699992299079895
sg21
F298.5
sg22
F199.5
sg23
I-1
sg24
I-1
sg25
I99
sg26
F0.8699992299079895
sg13
I37
sg27
I249
sg28
I587
sg29
g30
sg31
g30
sg32
F605.5
sg33
g30
sg34
F568.5
sbag1
(g16
g3
Ntp887
Rp888
(dp889
g20
F0.9973927736282349
sg21
F367.5
sg22
F176.5
sg23
I-1
sg24
I-1
sg25
I191
sg26
F0.9959062337875366
sg13
I66
sg27
I272
sg28
I45
sg29
g30
sg31
g30
sg32
F78.0
sg33
g30
sg34
F12.0
sbag1
(g16
g3
Ntp890
Rp891
(dp892
g20
F0.999336302280426
sg21
F364.0
sg22
F162.0
sg23
I-1
sg24
I-1
sg25
I202
sg26
F0.9993270635604858
sg13
I82
sg27
I263
sg28
I423
sg29
g30
sg31
g30
sg32
F464.0
sg33
g30
sg34
F382.0
sbag1
(g16
g3
Ntp893
Rp894
(dp895
g20
F0.9948037266731262
sg21
F352.0
sg22
F182.0
sg23
I-1
sg24
I-1
sg25
I170
sg26
F0.9926393032073975
sg13
I50
sg27
I267
sg28
I97
sg29
g30
sg31
g30
sg32
F122.0
sg33
g30
sg34
F72.0
sbag1
(g16
g3
Ntp896
Rp897
(dp898
g20
F0.9984301924705505
sg21
F360.0
sg22
F182.0
sg23
I-1
sg24
I-1
sg25
I178
sg26
F0.9970914125442505
sg13
I66
sg27
I271
sg28
I244
sg29
g30
sg31
g30
sg32
F277.0
sg33
g30
sg34
F211.0
sbag1
(g16
g3
Ntp899
Rp900
(dp901
g20
F0.5901493430137634
sg21
F316.0
sg22
F220.0
sg23
I-1
sg24
I-1
sg25
I96
sg26
F0.5901493430137634
sg13
I39
sg27
I268
sg28
I345
sg29
g30
sg31
g30
sg32
F364.5
sg33
g30
sg34
F325.5
sbasg50
g9
sg25
I-1
sg51
g9
sbag1
(g2
g3
Ntp902
Rp903
(dp904
g7
I-1
sg8
g9
sg10
I30
sg11
S'TUD-Crossing/frames_tensorbox/000031.jpg'
p905
sg13
I-1
sg14
(lp906
g1
(g16
g3
Ntp907
Rp908
(dp909
g20
F0.9952978491783142
sg21
F347.0
sg22
F171.0
sg23
I-1
sg24
I-1
sg25
I176
sg26
F0.9945411086082458
sg13
I72
sg27
I259
sg28
I598
sg29
g30
sg31
g30
sg32
F634.0
sg33
g30
sg34
F562.0
sbag1
(g16
g3
Ntp910
Rp911
(dp912
g20
F0.9943479895591736
sg21
F323.0
sg22
F201.0
sg23
I-1
sg24
I-1
sg25
I122
sg26
F0.9558695554733276
sg13
I55
sg27
I262
sg28
I351
sg29
g30
sg31
g30
sg32
F378.5
sg33
g30
sg34
F323.5
sbag1
(g16
g3
Ntp913
Rp914
(dp915
g20
F0.9949647188186646
sg21
F373.5
sg22
F174.5
sg23
I-1
sg24
I-1
sg25
I199
sg26
F0.9945840239524841
sg13
I67
sg27
I274
sg28
I44
sg29
g30
sg31
g30
sg32
F77.5
sg33
g30
sg34
F10.5
sbag1
(g16
g3
Ntp916
Rp917
(dp918
g20
F0.9995452761650085
sg21
F362.5
sg22
F167.5
sg23
I-1
sg24
I-1
sg25
I195
sg26
F0.9993650317192078
sg13
I81
sg27
I265
sg28
I432
sg29
g30
sg31
g30
sg32
F472.5
sg33
g30
sg34
F391.5
sbag1
(g16
g3
Ntp919
Rp920
(dp921
g20
F0.9987875819206238
sg21
F364.5
sg22
F163.5
sg23
I-1
sg24
I-1
sg25
I201
sg26
F0.9982500672340393
sg13
I76
sg27
I264
sg28
I622
sg29
g30
sg31
g30
sg32
F660.0
sg33
g30
sg34
F584.0
sbag1
(g16
g3
Ntp922
Rp923
(dp924
g20
F0.8666536808013916
sg21
F328.5
sg22
F193.5
sg23
I-1
sg24
I-1
sg25
I135
sg26
F0.8376591205596924
sg13
I46
sg27
I261
sg28
I45
sg29
g30
sg31
g30
sg32
F68.0
sg33
g30
sg34
F22.0
sbag1
(g16
g3
Ntp925
Rp926
(dp927
g20
F0.8036394715309143
sg21
F329.0
sg22
F195.0
sg23
I-1
sg24
I-1
sg25
I134
sg26
F0.8036394715309143
sg13
I44
sg27
I262
sg28
I98
sg29
g30
sg31
g30
sg32
F120.0
sg33
g30
sg34
F76.0
sbag1
(g16
g3
Ntp928
Rp929
(dp930
g20
F0.9922450184822083
sg21
F349.5
sg22
F182.5
sg23
I-1
sg24
I-1
sg25
I167
sg26
F0.9874605536460876
sg13
I53
sg27
I266
sg28
I96
sg29
g30
sg31
g30
sg32
F122.5
sg33
g30
sg34
F69.5
sbag1
(g16
g3
Ntp931
Rp932
(dp933
g20
F0.9983483552932739
sg21
F360.0
sg22
F182.0
sg23
I-1
sg24
I-1
sg25
I178
sg26
F0.9983075857162476
sg13
I62
sg27
I271
sg28
I252
sg29
g30
sg31
g30
sg32
F283.0
sg33
g30
sg34
F221.0
sbasg50
g9
sg25
I-1
sg51
g9
sbag1
(g2
g3
Ntp934
Rp935
(dp936
g7
I-1
sg8
g9
sg10
I31
sg11
S'TUD-Crossing/frames_tensorbox/000032.jpg'
p937
sg13
I-1
sg14
(lp938
g1
(g16
g3
Ntp939
Rp940
(dp941
g20
F0.9249371290206909
sg21
F306.5
sg22
F195.5
sg23
I-1
sg24
I-1
sg25
I111
sg26
F0.9249371290206909
sg13
I43
sg27
I251
sg28
I91
sg29
g30
sg31
g30
sg32
F112.5
sg33
g30
sg34
F69.5
sbag1
(g16
g3
Ntp942
Rp943
(dp944
g20
F0.9222710728645325
sg21
F321.0
sg22
F211.0
sg23
I-1
sg24
I-1
sg25
I110
sg26
F0.9222710728645325
sg13
I52
sg27
I266
sg28
I357
sg29
g30
sg31
g30
sg32
F383.0
sg33
g30
sg34
F331.0
sbag1
(g16
g3
Ntp945
Rp946
(dp947
g20
F0.99947589635849
sg21
F359.5
sg22
F168.5
sg23
I-1
sg24
I-1
sg25
I191
sg26
F0.9987130165100098
sg13
I72
sg27
I264
sg28
I437
sg29
g30
sg31
g30
sg32
F473.0
sg33
g30
sg34
F401.0
sbag1
(g16
g3
Ntp948
Rp949
(dp950
g20
F0.9044980406761169
sg21
F336.5
sg22
F193.5
sg23
I-1
sg24
I-1
sg25
I143
sg26
F0.8738294243812561
sg13
I47
sg27
I265
sg28
I47
sg29
g30
sg31
g30
sg32
F70.5
sg33
g30
sg34
F23.5
sbag1
(g16
g3
Ntp951
Rp952
(dp953
g20
F0.9958725571632385
sg21
F369.5
sg22
F180.5
sg23
I-1
sg24
I-1
sg25
I189
sg26
F0.9935166835784912
sg13
I67
sg27
I275
sg28
I48
sg29
g30
sg31
g30
sg32
F81.5
sg33
g30
sg34
F14.5
sbag1
(g16
g3
Ntp954
Rp955
(dp956
g20
F0.9988620281219482
sg21
F366.5
sg22
F151.5
sg23
I-1
sg24
I-1
sg25
I215
sg26
F0.9986514449119568
sg13
I91
sg27
I259
sg28
I614
sg29
g30
sg31
g30
sg32
F659.5
sg33
g30
sg34
F568.5
sbag1
(g16
g3
Ntp957
Rp958
(dp959
g20
F0.9979670643806458
sg21
F358.5
sg22
F185.5
sg23
I-1
sg24
I-1
sg25
I173
sg26
F0.9976431727409363
sg13
I63
sg27
I272
sg28
I263
sg29
g30
sg31
g30
sg32
F294.5
sg33
g30
sg34
F231.5
sbasg50
g9
sg25
I-1
sg51
g9
sbag1
(g2
g3
Ntp960
Rp961
(dp962
g7
I-1
sg8
g9
sg10
I32
sg11
S'TUD-Crossing/frames_tensorbox/000033.jpg'
p963
sg13
I-1
sg14
(lp964
g1
(g16
g3
Ntp965
Rp966
(dp967
g20
F0.9960558414459229
sg21
F351.5
sg22
F180.5
sg23
I-1
sg24
I-1
sg25
I171
sg26
F0.9854699373245239
sg13
I66
sg27
I266
sg28
I113
sg29
g30
sg31
g30
sg32
F146.0
sg33
g30
sg34
F80.0
sbag1
(g16
g3
Ntp968
Rp969
(dp970
g20
F0.8912882208824158
sg21
F338.0
sg22
F206.0
sg23
I-1
sg24
I-1
sg25
I132
sg26
F0.8912882208824158
sg13
I44
sg27
I272
sg28
I241
sg29
g30
sg31
g30
sg32
F263.0
sg33
g30
sg34
F219.0
sbag1
(g16
g3
Ntp971
Rp972
(dp973
g20
F0.9994440674781799
sg21
F359.5
sg22
F170.5
sg23
I-1
sg24
I-1
sg25
I189
sg26
F0.9982226490974426
sg13
I74
sg27
I265
sg28
I446
sg29
g30
sg31
g30
sg32
F483.0
sg33
g30
sg34
F409.0
sbag1
(g16
g3
Ntp974
Rp975
(dp976
g20
F0.9978245496749878
sg21
F372.5
sg22
F133.5
sg23
I-1
sg24
I-1
sg25
I239
sg26
F0.9974324107170105
sg13
I105
sg27
I253
sg28
I609
sg29
g30
sg31
g30
sg32
F661.5
sg33
g30
sg34
F556.5
sbag1
(g16
g3
Ntp977
Rp978
(dp979
g20
F0.9848278760910034
sg21
F352.0
sg22
F188.0
sg23
I-1
sg24
I-1
sg25
I164
sg26
F0.9811496734619141
sg13
I56
sg27
I270
sg28
I63
sg29
g30
sg31
g30
sg32
F91.0
sg33
g30
sg34
F35.0
sbag1
(g16
g3
Ntp980
Rp981
(dp982
g20
F0.9770728349685669
sg21
F322.5
sg22
F199.5
sg23
I-1
sg24
I-1
sg25
I123
sg26
F0.9582973122596741
sg13
I48
sg27
I261
sg28
I361
sg29
g30
sg31
g30
sg32
F385.0
sg33
g30
sg34
F337.0
sbag1
(g16
g3
Ntp983
Rp984
(dp985
g20
F0.9939000606536865
sg21
F356.0
sg22
F188.0
sg23
I-1
sg24
I-1
sg25
I168
sg26
F0.9872249364852905
sg13
I59
sg27
I272
sg28
I52
sg29
g30
sg31
g30
sg32
F81.5
sg33
g30
sg34
F22.5
sbag1
(g16
g3
Ntp986
Rp987
(dp988
g20
F0.9966302514076233
sg21
F357.5
sg22
F184.5
sg23
I-1
sg24
I-1
sg25
I173
sg26
F0.9955833554267883
sg13
I62
sg27
I271
sg28
I265
sg29
g30
sg31
g30
sg32
F296.0
sg33
g30
sg34
F234.0
sbag1
(g16
g3
Ntp989
Rp990
(dp991
g20
F0.6666062474250793
sg21
F325.5
sg22
F198.5
sg23
I-1
sg24
I-1
sg25
I127
sg26
F0.6666062474250793
sg13
I40
sg27
I262
sg28
I92
sg29
g30
sg31
g30
sg32
F112.0
sg33
g30
sg34
F72.0
sbasg50
g9
sg25
I-1
sg51
g9
sbag1
(g2
g3
Ntp992
Rp993
(dp994
g7
I-1
sg8
g9
sg10
I33
sg11
S'TUD-Crossing/frames_tensorbox/000034.jpg'
p995
sg13
I-1
sg14
(lp996
g1
(g16
g3
Ntp997
Rp998
(dp999
g20
F0.9227395057678223
sg21
F347.5
sg22
F176.5
sg23
I-1
sg24
I-1
sg25
I171
sg26
F0.9227395057678223
sg13
I64
sg27
I262
sg28
I433
sg29
g30
sg31
g30
sg32
F465.0
sg33
g30
sg34
F401.0
sbag1
(g16
g3
Ntp1000
Rp1001
(dp1002
g20
F0.9943093061447144
sg21
F354.5
sg22
F187.5
sg23
I-1
sg24
I-1
sg25
I167
sg26
F0.9941325783729553
sg13
I55
sg27
I271
sg28
I43
sg29
g30
sg31
g30
sg32
F70.5
sg33
g30
sg34
F15.5
sbag1
(g16
g3
Ntp1003
Rp1004
(dp1005
g20
F0.9770321846008301
sg21
F349.5
sg22
F190.5
sg23
I-1
sg24
I-1
sg25
I159
sg26
F0.9752578139305115
sg13
I56
sg27
I270
sg28
I77
sg29
g30
sg31
g30
sg32
F105.0
sg33
g30
sg34
F49.0
sbag1
(g16
g3
Ntp1006
Rp1007
(dp1008
g20
F0.9958959817886353
sg21
F348.5
sg22
F179.5
sg23
I-1
sg24
I-1
sg25
I169
sg26
F0.9945656061172485
sg13
I67
sg27
I264
sg28
I122
sg29
g30
sg31
g30
sg32
F155.5
sg33
g30
sg34
F88.5
sbag1
(g16
g3
Ntp1009
Rp1010
(dp1011
g20
F0.8158234357833862
sg21
F326.0
sg22
F206.0
sg23
I-1
sg24
I-1
sg25
I120
sg26
F0.8158234357833862
sg13
I41
sg27
I266
sg28
I249
sg29
g30
sg31
g30
sg32
F269.5
sg33
g30
sg34
F228.5
sbag1
(g16
g3
Ntp1012
Rp1013
(dp1014
g20
F0.9946586489677429
sg21
F320.0
sg22
F194.0
sg23
I-1
sg24
I-1
sg25
I126
sg26
F0.9945526719093323
sg13
I45
sg27
I257
sg28
I368
sg29
g30
sg31
g30
sg32
F390.5
sg33
g30
sg34
F345.5
sbag1
(g16
g3
Ntp1015
Rp1016
(dp1017
g20
F0.9981980919837952
sg21
F371.5
sg22
F146.5
sg23
I-1
sg24
I-1
sg25
I225
sg26
F0.9981743097305298
sg13
I85
sg27
I259
sg28
I612
sg29
g30
sg31
g30
sg32
F654.5
sg33
g30
sg34
F569.5
sbag1
(g16
g3
Ntp1018
Rp1019
(dp1020
g20
F0.9966264963150024
sg21
F357.0
sg22
F179.0
sg23
I-1
sg24
I-1
sg25
I178
sg26
F0.9951030015945435
sg13
I67
sg27
I268
sg28
I270
sg29
g30
sg31
g30
sg32
F303.5
sg33
g30
sg34
F236.5
sbag1
(g16
g3
Ntp1021
Rp1022
(dp1023
g20
F0.34020480513572693
sg21
F343.5
sg22
F184.5
sg23
I-1
sg24
I-1
sg25
I159
sg26
F0.34020480513572693
sg13
I55
sg27
I264
sg28
I415
sg29
g30
sg31
g30
sg32
F442.5
sg33
g30
sg34
F387.5
sbasg50
g9
sg25
I-1
sg51
g9
sbag1
(g2
g3
Ntp1024
Rp1025
(dp1026
g7
I-1
sg8
g9
sg10
I34
sg11
S'TUD-Crossing/frames_tensorbox/000035.jpg'
p1027
sg13
I-1
sg14
(lp1028
g1
(g16
g3
Ntp1029
Rp1030
(dp1031
g20
F0.9951598048210144
sg21
F350.5
sg22
F189.5
sg23
I-1
sg24
I-1
sg25
I161
sg26
F0.9951598048210144
sg13
I50
sg27
I270
sg28
I41
sg29
g30
sg31
g30
sg32
F66.0
sg33
g30
sg34
F16.0
sbag1
(g16
g3
Ntp1032
Rp1033
(dp1034
g20
F0.8102256655693054
sg21
F304.5
sg22
F211.5
sg23
I-1
sg24
I-1
sg25
I93
sg26
F0.8102256655693054
sg13
I33
sg27
I258
sg28
I247
sg29
g30
sg31
g30
sg32
F263.5
sg33
g30
sg34
F230.5
sbag1
(g16
g3
Ntp1035
Rp1036
(dp1037
g20
F0.9883239269256592
sg21
F373.0
sg22
F123.0
sg23
I-1
sg24
I-1
sg25
I250
sg26
F0.9474450349807739
sg13
I77
sg27
I248
sg28
I605
sg29
g30
sg31
g30
sg32
F643.5
sg33
g30
sg34
F566.5
sbag1
(g16
g3
Ntp1038
Rp1039
(dp1040
g20
F0.9947185516357422
sg21
F324.0
sg22
F184.0
sg23
I-1
sg24
I-1
sg25
I140
sg26
F0.9930526614189148
sg13
I49
sg27
I254
sg28
I375
sg29
g30
sg31
g30
sg32
F399.5
sg33
g30
sg34
F350.5
sbag1
(g16
g3
Ntp1041
Rp1042
(dp1043
g20
F0.9345301389694214
sg21
F340.0
sg22
F174.0
sg23
I-1
sg24
I-1
sg25
I166
sg26
F0.9345301389694214
sg13
I62
sg27
I257
sg28
I412
sg29
g30
sg31
g30
sg32
F443.0
sg33
g30
sg34
F381.0
sbag1
(g16
g3
Ntp1044
Rp1045
(dp1046
g20
F0.999040424823761
sg21
F359.0
sg22
F159.0
sg23
I-1
sg24
I-1
sg25
I200
sg26
F0.9989410042762756
sg13
I85
sg27
I259
sg28
I454
sg29
g30
sg31
g30
sg32
F496.5
sg33
g30
sg34
F411.5
sbag1
(g16
g3
Ntp1047
Rp1048
(dp1049
g20
F0.989526629447937
sg21
F354.5
sg22
F183.5
sg23
I-1
sg24
I-1
sg25
I171
sg26
F0.984052300453186
sg13
I58
sg27
I269
sg28
I70
sg29
g30
sg31
g30
sg32
F99.0
sg33
g30
sg34
F41.0
sbag1
(g16
g3
Ntp1050
Rp1051
(dp1052
g20
F0.9974186420440674
sg21
F349.0
sg22
F179.0
sg23
I-1
sg24
I-1
sg25
I170
sg26
F0.9973281621932983
sg13
I69
sg27
I264
sg28
I122
sg29
g30
sg31
g30
sg32
F156.5
sg33
g30
sg34
F87.5
sbag1
(g16
g3
Ntp1053
Rp1054
(dp1055
g20
F0.9979857206344604
sg21
F356.0
sg22
F172.0
sg23
I-1
sg24
I-1
sg25
I184
sg26
F0.9971600770950317
sg13
I67
sg27
I264
sg28
I276
sg29
g30
sg31
g30
sg32
F309.5
sg33
g30
sg34
F242.5
sbasg50
g9
sg25
I-1
sg51
g9
sbag1
(g2
g3
Ntp1056
Rp1057
(dp1058
g7
I-1
sg8
g9
sg10
I35
sg11
S'TUD-Crossing/frames_tensorbox/000036.jpg'
p1059
sg13
I-1
sg14
(lp1060
g1
(g16
g3
Ntp1061
Rp1062
(dp1063
g20
F0.9974066615104675
sg21
F349.0
sg22
F179.0
sg23
I-1
sg24
I-1
sg25
I170
sg26
F0.9908526539802551
sg13
I70
sg27
I264
sg28
I126
sg29
g30
sg31
g30
sg32
F161.0
sg33
g30
sg34
F91.0
sbag1
(g16
g3
Ntp1064
Rp1065
(dp1066
g20
F0.9901673793792725
sg21
F353.0
sg22
F173.0
sg23
I-1
sg24
I-1
sg25
I180
sg26
F0.9901673793792725
sg13
I65
sg27
I263
sg28
I261
sg29
g30
sg31
g30
sg32
F293.5
sg33
g30
sg34
F228.5
sbag1
(g16
g3
Ntp1067
Rp1068
(dp1069
g20
F0.9865139126777649
sg21
F374.5
sg22
F129.5
sg23
I-1
sg24
I-1
sg25
I245
sg26
F0.9706215262413025
sg13
I89
sg27
I252
sg28
I606
sg29
g30
sg31
g30
sg32
F650.5
sg33
g30
sg34
F561.5
sbag1
(g16
g3
Ntp1070
Rp1071
(dp1072
g20
F0.9907087087631226
sg21
F357.5
sg22
F184.5
sg23
I-1
sg24
I-1
sg25
I173
sg26
F0.9862459897994995
sg13
I55
sg27
I271
sg28
I79
sg29
g30
sg31
g30
sg32
F106.5
sg33
g30
sg34
F51.5
sbag1
(g16
g3
Ntp1073
Rp1074
(dp1075
g20
F0.9957994818687439
sg21
F328.0
sg22
F180.0
sg23
I-1
sg24
I-1
sg25
I148
sg26
F0.9957141280174255
sg13
I54
sg27
I254
sg28
I383
sg29
g30
sg31
g30
sg32
F410.0
sg33
g30
sg34
F356.0
sbag1
(g16
g3
Ntp1076
Rp1077
(dp1078
g20
F0.9993981122970581
sg21
F358.0
sg22
F152.0
sg23
I-1
sg24
I-1
sg25
I206
sg26
F0.9989575147628784
sg13
I83
sg27
I255
sg28
I459
sg29
g30
sg31
g30
sg32
F500.5
sg33
g30
sg34
F417.5
sbag1
(g16
g3
Ntp1079
Rp1080
(dp1081
g20
F0.988902747631073
sg21
F345.5
sg22
F196.5
sg23
I-1
sg24
I-1
sg25
I149
sg26
F0.9856206178665161
sg13
I45
sg27
I271
sg28
I41
sg29
g30
sg31
g30
sg32
F63.5
sg33
g30
sg34
F18.5
sbag1
(g16
g3
Ntp1082
Rp1083
(dp1084
g20
F0.9978764057159424
sg21
F356.0
sg22
F176.0
sg23
I-1
sg24
I-1
sg25
I180
sg26
F0.9969697594642639
sg13
I63
sg27
I266
sg28
I280
sg29
g30
sg31
g30
sg32
F311.5
sg33
g30
sg34
F248.5
sbag1
(g16
g3
Ntp1085
Rp1086
(dp1087
g20
F0.6092402338981628
sg21
F297.5
sg22
F208.5
sg23
I-1
sg24
I-1
sg25
I89
sg26
F0.6092402338981628
sg13
I29
sg27
I253
sg28
I240
sg29
g30
sg31
g30
sg32
F254.5
sg33
g30
sg34
F225.5
sbasg50
g9
sg25
I-1
sg51
g9
sbag1
(g2
g3
Ntp1088
Rp1089
(dp1090
g7
I-1
sg8
g9
sg10
I36
sg11
S'TUD-Crossing/frames_tensorbox/000037.jpg'
p1091
sg13
I-1
sg14
(lp1092
g1
(g16
g3
Ntp1093
Rp1094
(dp1095
g20
F0.9973016977310181
sg21
F347.5
sg22
F182.5
sg23
I-1
sg24
I-1
sg25
I165
sg26
F0.9875126481056213
sg13
I69
sg27
I265
sg28
I131
sg29
g30
sg31
g30
sg32
F165.5
sg33
g30
sg34
F96.5
sbag1
(g16
g3
Ntp1096
Rp1097
(dp1098
g20
F0.9742681980133057
sg21
F376.5
sg22
F147.5
sg23
I-1
sg24
I-1
sg25
I229
sg26
F0.9742681980133057
sg13
I71
sg27
I262
sg28
I589
sg29
g30
sg31
g30
sg32
F624.5
sg33
g30
sg34
F553.5
sbag1
(g16
g3
Ntp1099
Rp1100
(dp1101
g20
F0.9913960099220276
sg21
F350.5
sg22
F175.5
sg23
I-1
sg24
I-1
sg25
I175
sg26
F0.9866520166397095
sg13
I60
sg27
I263
sg28
I88
sg29
g30
sg31
g30
sg32
F118.0
sg33
g30
sg34
F58.0
sbag1
(g16
g3
Ntp1102
Rp1103
(dp1104
g20
F0.9648025631904602
sg21
F335.0
sg22
F193.0
sg23
I-1
sg24
I-1
sg25
I142
sg26
F0.949783444404602
sg13
I49
sg27
I264
sg28
I261
sg29
g30
sg31
g30
sg32
F285.5
sg33
g30
sg34
F236.5
sbag1
(g16
g3
Ntp1105
Rp1106
(dp1107
g20
F0.9938969016075134
sg21
F328.5
sg22
F185.5
sg23
I-1
sg24
I-1
sg25
I143
sg26
F0.9930493831634521
sg13
I52
sg27
I257
sg28
I384
sg29
g30
sg31
g30
sg32
F410.0
sg33
g30
sg34
F358.0
sbag1
(g16
g3
Ntp1108
Rp1109
(dp1110
g20
F0.9995396137237549
sg21
F364.0
sg22
F158.0
sg23
I-1
sg24
I-1
sg25
I206
sg26
F0.9993001222610474
sg13
I83
sg27
I261
sg28
I463
sg29
g30
sg31
g30
sg32
F504.5
sg33
g30
sg34
F421.5
sbag1
(g16
g3
Ntp1111
Rp1112
(dp1113
g20
F0.9885868430137634
sg21
F348.0
sg22
F188.0
sg23
I-1
sg24
I-1
sg25
I160
sg26
F0.9885324239730835
sg13
I53
sg27
I268
sg28
I51
sg29
g30
sg31
g30
sg32
F77.5
sg33
g30
sg34
F24.5
sbag1
(g16
g3
Ntp1114
Rp1115
(dp1116
g20
F0.9980912804603577
sg21
F356.5
sg22
F177.5
sg23
I-1
sg24
I-1
sg25
I179
sg26
F0.9970683455467224
sg13
I62
sg27
I267
sg28
I282
sg29
g30
sg31
g30
sg32
F313.0
sg33
g30
sg34
F251.0
sbag1
(g16
g3
Ntp1117
Rp1118
(dp1119
g20
F0.7907701134681702
sg21
F267.5
sg22
F204.5
sg23
I-1
sg24
I-1
sg25
I63
sg26
F0.7907701134681702
sg13
I21
sg27
I236
sg28
I355
sg29
g30
sg31
g30
sg32
F365.5
sg33
g30
sg34
F344.5
sbag1
(g16
g3
Ntp1120
Rp1121
(dp1122
g20
F0.6290316581726074
sg21
F297.5
sg22
F210.5
sg23
I-1
sg24
I-1
sg25
I87
sg26
F0.6290316581726074
sg13
I23
sg27
I254
sg28
I252
sg29
g30
sg31
g30
sg32
F263.5
sg33
g30
sg34
F240.5
sbasg50
g9
sg25
I-1
sg51
g9
sbag1
(g2
g3
Ntp1123
Rp1124
(dp1125
g7
I-1
sg8
g9
sg10
I37
sg11
S'TUD-Crossing/frames_tensorbox/000038.jpg'
p1126
sg13
I-1
sg14
(lp1127
g1
(g16
g3
Ntp1128
Rp1129
(dp1130
g20
F0.9948285222053528
sg21
F355.5
sg22
F186.5
sg23
I-1
sg24
I-1
sg25
I169
sg26
F0.990110456943512
sg13
I51
sg27
I271
sg28
I44
sg29
g30
sg31
g30
sg32
F69.5
sg33
g30
sg34
F18.5
sbag1
(g16
g3
Ntp1131
Rp1132
(dp1133
g20
F0.998340368270874
sg21
F392.0
sg22
F130.0
sg23
I-1
sg24
I-1
sg25
I262
sg26
F0.9980535507202148
sg13
I89
sg27
I261
sg28
I585
sg29
g30
sg31
g30
sg32
F629.5
sg33
g30
sg34
F540.5
sbag1
(g16
g3
Ntp1134
Rp1135
(dp1136
g20
F0.9921118021011353
sg21
F349.5
sg22
F180.5
sg23
I-1
sg24
I-1
sg25
I169
sg26
F0.9802379608154297
sg13
I59
sg27
I265
sg28
I95
sg29
g30
sg31
g30
sg32
F124.5
sg33
g30
sg34
F65.5
sbag1
(g16
g3
Ntp1137
Rp1138
(dp1139
g20
F0.9895946979522705
sg21
F353.0
sg22
F191.0
sg23
I-1
sg24
I-1
sg25
I162
sg26
F0.983940601348877
sg13
I49
sg27
I272
sg28
I267
sg29
g30
sg31
g30
sg32
F291.5
sg33
g30
sg34
F242.5
sbag1
(g16
g3
Ntp1140
Rp1141
(dp1142
g20
F0.9943201541900635
sg21
F331.5
sg22
F184.5
sg23
I-1
sg24
I-1
sg25
I147
sg26
F0.9935532808303833
sg13
I57
sg27
I258
sg28
I390
sg29
g30
sg31
g30
sg32
F418.5
sg33
g30
sg34
F361.5
sbag1
(g16
g3
Ntp1143
Rp1144
(dp1145
g20
F0.9992367029190063
sg21
F360.0
sg22
F160.0
sg23
I-1
sg24
I-1
sg25
I200
sg26
F0.9991075396537781
sg13
I75
sg27
I260
sg28
I470
sg29
g30
sg31
g30
sg32
F507.5
sg33
g30
sg34
F432.5
sbag1
(g16
g3
Ntp1146
Rp1147
(dp1148
g20
F0.9965147972106934
sg21
F346.5
sg22
F185.5
sg23
I-1
sg24
I-1
sg25
I161
sg26
F0.9963853359222412
sg13
I71
sg27
I266
sg28
I136
sg29
g30
sg31
g30
sg32
F171.5
sg33
g30
sg34
F100.5
sbag1
(g16
g3
Ntp1149
Rp1150
(dp1151
g20
F0.9611114859580994
sg21
F344.5
sg22
F171.5
sg23
I-1
sg24
I-1
sg25
I173
sg26
F0.9182371497154236
sg13
I53
sg27
I258
sg28
I273
sg29
g30
sg31
g30
sg32
F299.5
sg33
g30
sg34
F246.5
sbag1
(g16
g3
Ntp1152
Rp1153
(dp1154
g20
F0.7486382722854614
sg21
F341.5
sg22
F190.5
sg23
I-1
sg24
I-1
sg25
I151
sg26
F0.7486382722854614
sg13
I43
sg27
I266
sg28
I294
sg29
g30
sg31
g30
sg32
F315.5
sg33
g30
sg34
F272.5
sbag1
(g16
g3
Ntp1155
Rp1156
(dp1157
g20
F0.6829315423965454
sg21
F269.5
sg22
F200.5
sg23
I-1
sg24
I-1
sg25
I69
sg26
F0.6829315423965454
sg13
I24
sg27
I235
sg28
I356
sg29
g30
sg31
g30
sg32
F368.0
sg33
g30
sg34
F344.0
sbasg50
g9
sg25
I-1
sg51
g9
sbag1
(g2
g3
Ntp1158
Rp1159
(dp1160
g7
I-1
sg8
g9
sg10
I38
sg11
S'TUD-Crossing/frames_tensorbox/000039.jpg'
p1161
sg13
I-1
sg14
(lp1162
g1
(g16
g3
Ntp1163
Rp1164
(dp1165
g20
F0.9925254583358765
sg21
F354.0
sg22
F182.0
sg23
I-1
sg24
I-1
sg25
I172
sg26
F0.9768992066383362
sg13
I48
sg27
I268
sg28
I45
sg29
g30
sg31
g30
sg32
F69.0
sg33
g30
sg34
F21.0
sbag1
(g16
g3
Ntp1166
Rp1167
(dp1168
g20
F0.9932587146759033
sg21
F346.5
sg22
F187.5
sg23
I-1
sg24
I-1
sg25
I159
sg26
F0.9718959331512451
sg13
I57
sg27
I267
sg28
I140
sg29
g30
sg31
g30
sg32
F168.5
sg33
g30
sg34
F111.5
sbag1
(g16
g3
Ntp1169
Rp1170
(dp1171
g20
F0.9902892112731934
sg21
F355.5
sg22
F174.5
sg23
I-1
sg24
I-1
sg25
I181
sg26
F0.987449049949646
sg13
I52
sg27
I265
sg28
I98
sg29
g30
sg31
g30
sg32
F124.0
sg33
g30
sg34
F72.0
sbag1
(g16
g3
Ntp1172
Rp1173
(dp1174
g20
F0.9959789514541626
sg21
F327.0
sg22
F181.0
sg23
I-1
sg24
I-1
sg25
I146
sg26
F0.9938957095146179
sg13
I64
sg27
I254
sg28
I396
sg29
g30
sg31
g30
sg32
F428.0
sg33
g30
sg34
F364.0
sbag1
(g16
g3
Ntp1175
Rp1176
(dp1177
g20
F0.998765230178833
sg21
F354.0
sg22
F164.0
sg23
I-1
sg24
I-1
sg25
I190
sg26
F0.9980902075767517
sg13
I71
sg27
I259
sg28
I476
sg29
g30
sg31
g30
sg32
F511.5
sg33
g30
sg34
F440.5
sbag1
(g16
g3
Ntp1178
Rp1179
(dp1180
g20
F0.9993433356285095
sg21
F384.5
sg22
F139.5
sg23
I-1
sg24
I-1
sg25
I245
sg26
F0.9989787340164185
sg13
I103
sg27
I262
sg28
I571
sg29
g30
sg31
g30
sg32
F622.5
sg33
g30
sg34
F519.5
sbag1
(g16
g3
Ntp1181
Rp1182
(dp1183
g20
F0.9829658269882202
sg21
F343.0
sg22
F175.0
sg23
I-1
sg24
I-1
sg25
I168
sg26
F0.9824032783508301
sg13
I56
sg27
I259
sg28
I269
sg29
g30
sg31
g30
sg32
F297.0
sg33
g30
sg34
F241.0
sbag1
(g16
g3
Ntp1184
Rp1185
(dp1186
g20
F0.9969883561134338
sg21
F355.0
sg22
F177.0
sg23
I-1
sg24
I-1
sg25
I178
sg26
F0.9957444071769714
sg13
I56
sg27
I266
sg28
I294
sg29
g30
sg31
g30
sg32
F322.0
sg33
g30
sg34
F266.0
sbag1
(g16
g3
Ntp1187
Rp1188
(dp1189
g20
F0.21072964370250702
sg21
F311.5
sg22
F196.5
sg23
I-1
sg24
I-1
sg25
I115
sg26
F0.21072964370250702
sg13
I31
sg27
I254
sg28
I121
sg29
g30
sg31
g30
sg32
F136.5
sg33
g30
sg34
F105.5
sbag1
(g16
g3
Ntp1190
Rp1191
(dp1192
g20
F0.278449147939682
sg21
F320.0
sg22
F202.0
sg23
I-1
sg24
I-1
sg25
I118
sg26
F0.278449147939682
sg13
I35
sg27
I261
sg28
I304
sg29
g30
sg31
g30
sg32
F321.5
sg33
g30
sg34
F286.5
sbasg50
g9
sg25
I-1
sg51
g9
sbag1
(g2
g3
Ntp1193
Rp1194
(dp1195
g7
I-1
sg8
g9
sg10
I39
sg11
S'TUD-Crossing/frames_tensorbox/000040.jpg'
p1196
sg13
I-1
sg14
(lp1197
g1
(g16
g3
Ntp1198
Rp1199
(dp1200
g20
F0.9391487240791321
sg21
F353.5
sg22
F176.5
sg23
I-1
sg24
I-1
sg25
I177
sg26
F0.9391487240791321
sg13
I53
sg27
I265
sg28
I133
sg29
g30
sg31
g30
sg32
F159.5
sg33
g30
sg34
F106.5
sbag1
(g16
g3
Ntp1201
Rp1202
(dp1203
g20
F0.995384156703949
sg21
F349.0
sg22
F183.0
sg23
I-1
sg24
I-1
sg25
I166
sg26
F0.9456226229667664
sg13
I46
sg27
I266
sg28
I50
sg29
g30
sg31
g30
sg32
F73.0
sg33
g30
sg34
F27.0
sbag1
(g16
g3
Ntp1204
Rp1205
(dp1206
g20
F0.9983695149421692
sg21
F353.5
sg22
F162.5
sg23
I-1
sg24
I-1
sg25
I191
sg26
F0.9960901141166687
sg13
I64
sg27
I258
sg28
I481
sg29
g30
sg31
g30
sg32
F513.0
sg33
g30
sg34
F449.0
sbag1
(g16
g3
Ntp1207
Rp1208
(dp1209
g20
F0.9895311594009399
sg21
F348.5
sg22
F177.5
sg23
I-1
sg24
I-1
sg25
I171
sg26
F0.9869689345359802
sg13
I52
sg27
I263
sg28
I105
sg29
g30
sg31
g30
sg32
F131.0
sg33
g30
sg34
F79.0
sbag1
(g16
g3
Ntp1210
Rp1211
(dp1212
g20
F0.9949068427085876
sg21
F323.0
sg22
F183.0
sg23
I-1
sg24
I-1
sg25
I140
sg26
F0.9940513968467712
sg13
I62
sg27
I253
sg28
I397
sg29
g30
sg31
g30
sg32
F428.0
sg33
g30
sg34
F366.0
sbag1
(g16
g3
Ntp1213
Rp1214
(dp1215
g20
F0.9991989731788635
sg21
F381.0
sg22
F129.0
sg23
I-1
sg24
I-1
sg25
I252
sg26
F0.9987233281135559
sg13
I113
sg27
I255
sg28
I565
sg29
g30
sg31
g30
sg32
F621.5
sg33
g30
sg34
F508.5
sbag1
(g16
g3
Ntp1216
Rp1217
(dp1218
g20
F0.9799663424491882
sg21
F344.0
sg22
F172.0
sg23
I-1
sg24
I-1
sg25
I172
sg26
F0.9705010056495667
sg13
I58
sg27
I258
sg28
I272
sg29
g30
sg31
g30
sg32
F301.0
sg33
g30
sg34
F243.0
sbag1
(g16
g3
Ntp1219
Rp1220
(dp1221
g20
F0.9900435209274292
sg21
F342.0
sg22
F190.0
sg23
I-1
sg24
I-1
sg25
I152
sg26
F0.9742544889450073
sg13
I51
sg27
I266
sg28
I272
sg29
g30
sg31
g30
sg32
F297.5
sg33
g30
sg34
F246.5
sbag1
(g16
g3
Ntp1222
Rp1223
(dp1224
g20
F0.7375806570053101
sg21
F320.0
sg22
F196.0
sg23
I-1
sg24
I-1
sg25
I124
sg26
F0.7375806570053101
sg13
I38
sg27
I258
sg28
I313
sg29
g30
sg31
g30
sg32
F332.0
sg33
g30
sg34
F294.0
sbasg50
g9
sg25
I-1
sg51
g9
sbag1
(g2
g3
Ntp1225
Rp1226
(dp1227
g7
I-1
sg8
g9
sg10
I40
sg11
S'TUD-Crossing/frames_tensorbox/000041.jpg'
p1228
sg13
I-1
sg14
(lp1229
g1
(g16
g3
Ntp1230
Rp1231
(dp1232
g20
F0.8388346433639526
sg21
F350.0
sg22
F178.0
sg23
I-1
sg24
I-1
sg25
I172
sg26
F0.8388346433639526
sg13
I55
sg27
I264
sg28
I125
sg29
g30
sg31
g30
sg32
F152.5
sg33
g30
sg34
F97.5
sbag1
(g16
g3
Ntp1233
Rp1234
(dp1235
g20
F0.9927394986152649
sg21
F320.5
sg22
F189.5
sg23
I-1
sg24
I-1
sg25
I131
sg26
F0.9927394986152649
sg13
I55
sg27
I255
sg28
I405
sg29
g30
sg31
g30
sg32
F432.5
sg33
g30
sg34
F377.5
sbag1
(g16
g3
Ntp1236
Rp1237
(dp1238
g20
F0.9961873888969421
sg21
F347.5
sg22
F184.5
sg23
I-1
sg24
I-1
sg25
I163
sg26
F0.9961873888969421
sg13
I47
sg27
I266
sg28
I53
sg29
g30
sg31
g30
sg32
F76.5
sg33
g30
sg34
F29.5
sbag1
(g16
g3
Ntp1239
Rp1240
(dp1241
g20
F0.9910635948181152
sg21
F347.5
sg22
F178.5
sg23
I-1
sg24
I-1
sg25
I169
sg26
F0.9910635948181152
sg13
I64
sg27
I263
sg28
I300
sg29
g30
sg31
g30
sg32
F332.0
sg33
g30
sg34
F268.0
sbag1
(g16
g3
Ntp1242
Rp1243
(dp1244
g20
F0.9982585310935974
sg21
F352.0
sg22
F162.0
sg23
I-1
sg24
I-1
sg25
I190
sg26
F0.9977436065673828
sg13
I63
sg27
I257
sg28
I489
sg29
g30
sg31
g30
sg32
F520.5
sg33
g30
sg34
F457.5
sbag1
(g16
g3
Ntp1245
Rp1246
(dp1247
g20
F0.9955392479896545
sg21
F348.0
sg22
F180.0
sg23
I-1
sg24
I-1
sg25
I168
sg26
F0.9942796230316162
sg13
I61
sg27
I264
sg28
I146
sg29
g30
sg31
g30
sg32
F176.5
sg33
g30
sg34
F115.5
sbag1
(g16
g3
Ntp1248
Rp1249
(dp1250
g20
F0.9993908405303955
sg21
F376.5
sg22
F131.5
sg23
I-1
sg24
I-1
sg25
I245
sg26
F0.998829185962677
sg13
I107
sg27
I254
sg28
I563
sg29
g30
sg31
g30
sg32
F616.5
sg33
g30
sg34
F509.5
sbag1
(g16
g3
Ntp1251
Rp1252
(dp1253
g20
F0.9970209002494812
sg21
F355.0
sg22
F173.0
sg23
I-1
sg24
I-1
sg25
I182
sg26
F0.9927725195884705
sg13
I74
sg27
I264
sg28
I295
sg29
g30
sg31
g30
sg32
F332.0
sg33
g30
sg34
F258.0
sbag1
(g16
g3
Ntp1254
Rp1255
(dp1256
g20
F0.7902699708938599
sg21
F336.5
sg22
F195.5
sg23
I-1
sg24
I-1
sg25
I141
sg26
F0.7290911078453064
sg13
I43
sg27
I266
sg28
I150
sg29
g30
sg31
g30
sg32
F171.5
sg33
g30
sg34
F128.5
sbasg50
g9
sg25
I-1
sg51
g9
sbag1
(g2
g3
Ntp1257
Rp1258
(dp1259
g7
I-1
sg8
g9
sg10
I41
sg11
S'TUD-Crossing/frames_tensorbox/000042.jpg'
p1260
sg13
I-1
sg14
(lp1261
g1
(g16
g3
Ntp1262
Rp1263
(dp1264
g20
F0.9749089479446411
sg21
F356.0
sg22
F170.0
sg23
I-1
sg24
I-1
sg25
I186
sg26
F0.9749089479446411
sg13
I65
sg27
I263
sg28
I482
sg29
g30
sg31
g30
sg32
F514.5
sg33
g30
sg34
F449.5
sbag1
(g16
g3
Ntp1265
Rp1266
(dp1267
g20
F0.9968258142471313
sg21
F349.0
sg22
F187.0
sg23
I-1
sg24
I-1
sg25
I162
sg26
F0.9968258142471313
sg13
I49
sg27
I268
sg28
I56
sg29
g30
sg31
g30
sg32
F80.5
sg33
g30
sg34
F31.5
sbag1
(g16
g3
Ntp1268
Rp1269
(dp1270
g20
F0.9988259673118591
sg21
F381.5
sg22
F138.5
sg23
I-1
sg24
I-1
sg25
I243
sg26
F0.9988210797309875
sg13
I101
sg27
I260
sg28
I552
sg29
g30
sg31
g30
sg32
F602.5
sg33
g30
sg34
F501.5
sbag1
(g16
g3
Ntp1271
Rp1272
(dp1273
g20
F0.9898548126220703
sg21
F346.5
sg22
F183.5
sg23
I-1
sg24
I-1
sg25
I163
sg26
F0.9706723690032959
sg13
I60
sg27
I265
sg28
I119
sg29
g30
sg31
g30
sg32
F149.0
sg33
g30
sg34
F89.0
sbag1
(g16
g3
Ntp1274
Rp1275
(dp1276
g20
F0.9960252046585083
sg21
F347.0
sg22
F173.0
sg23
I-1
sg24
I-1
sg25
I174
sg26
F0.9957026839256287
sg13
I64
sg27
I260
sg28
I144
sg29
g30
sg31
g30
sg32
F176.0
sg33
g30
sg34
F112.0
sbag1
(g16
g3
Ntp1277
Rp1278
(dp1279
g20
F0.997808039188385
sg21
F335.0
sg22
F175.0
sg23
I-1
sg24
I-1
sg25
I160
sg26
F0.9963933825492859
sg13
I72
sg27
I255
sg28
I419
sg29
g30
sg31
g30
sg32
F455.0
sg33
g30
sg34
F383.0
sbag1
(g16
g3
Ntp1280
Rp1281
(dp1282
g20
F0.9965125918388367
sg21
F351.0
sg22
F167.0
sg23
I-1
sg24
I-1
sg25
I184
sg26
F0.9947015643119812
sg13
I76
sg27
I259
sg28
I288
sg29
g30
sg31
g30
sg32
F326.0
sg33
g30
sg34
F250.0
sbag1
(g16
g3
Ntp1283
Rp1284
(dp1285
g20
F0.9981768131256104
sg21
F352.5
sg22
F173.5
sg23
I-1
sg24
I-1
sg25
I179
sg26
F0.9977265000343323
sg13
I71
sg27
I263
sg28
I310
sg29
g30
sg31
g30
sg32
F345.5
sg33
g30
sg34
F274.5
sbasg50
g9
sg25
I-1
sg51
g9
sbag1
(g2
g3
Ntp1286
Rp1287
(dp1288
g7
I-1
sg8
g9
sg10
I42
sg11
S'TUD-Crossing/frames_tensorbox/000043.jpg'
p1289
sg13
I-1
sg14
(lp1290
g1
(g16
g3
Ntp1291
Rp1292
(dp1293
g20
F0.9954925775527954
sg21
F344.5
sg22
F183.5
sg23
I-1
sg24
I-1
sg25
I161
sg26
F0.9544395208358765
sg13
I66
sg27
I264
sg28
I120
sg29
g30
sg31
g30
sg32
F153.0
sg33
g30
sg34
F87.0
sbag1
(g16
g3
Ntp1294
Rp1295
(dp1296
g20
F0.9961424469947815
sg21
F344.5
sg22
F187.5
sg23
I-1
sg24
I-1
sg25
I157
sg26
F0.9915499687194824
sg13
I54
sg27
I266
sg28
I152
sg29
g30
sg31
g30
sg32
F179.0
sg33
g30
sg34
F125.0
sbag1
(g16
g3
Ntp1297
Rp1298
(dp1299
g20
F0.9912273287773132
sg21
F362.0
sg22
F182.0
sg23
I-1
sg24
I-1
sg25
I180
sg26
F0.9909443855285645
sg13
I65
sg27
I272
sg28
I293
sg29
g30
sg31
g30
sg32
F325.5
sg33
g30
sg34
F260.5
sbag1
(g16
g3
Ntp1300
Rp1301
(dp1302
g20
F0.9980401396751404
sg21
F332.0
sg22
F180.0
sg23
I-1
sg24
I-1
sg25
I152
sg26
F0.996442973613739
sg13
I65
sg27
I256
sg28
I424
sg29
g30
sg31
g30
sg32
F456.5
sg33
g30
sg34
F391.5
sbag1
(g16
g3
Ntp1303
Rp1304
(dp1305
g20
F0.9909278750419617
sg21
F359.5
sg22
F178.5
sg23
I-1
sg24
I-1
sg25
I181
sg26
F0.9895402789115906
sg13
I65
sg27
I269
sg28
I493
sg29
g30
sg31
g30
sg32
F525.5
sg33
g30
sg34
F460.5
sbag1
(g16
g3
Ntp1306
Rp1307
(dp1308
g20
F0.9992751479148865
sg21
F380.0
sg22
F140.0
sg23
I-1
sg24
I-1
sg25
I240
sg26
F0.9985101819038391
sg13
I90
sg27
I260
sg28
I551
sg29
g30
sg31
g30
sg32
F596.0
sg33
g30
sg34
F506.0
sbag1
(g16
g3
Ntp1309
Rp1310
(dp1311
g20
F0.9949764013290405
sg21
F348.0
sg22
F192.0
sg23
I-1
sg24
I-1
sg25
I156
sg26
F0.9949406385421753
sg13
I51
sg27
I270
sg28
I60
sg29
g30
sg31
g30
sg32
F85.5
sg33
g30
sg34
F34.5
sbag1
(g16
g3
Ntp1312
Rp1313
(dp1314
g20
F0.998615026473999
sg21
F346.0
sg22
F178.0
sg23
I-1
sg24
I-1
sg25
I168
sg26
F0.998267412185669
sg13
I73
sg27
I262
sg28
I323
sg29
g30
sg31
g30
sg32
F359.5
sg33
g30
sg34
F286.5
sbasg50
g9
sg25
I-1
sg51
g9
sbag1
(g2
g3
Ntp1315
Rp1316
(dp1317
g7
I-1
sg8
g9
sg10
I43
sg11
S'TUD-Crossing/frames_tensorbox/000044.jpg'
p1318
sg13
I-1
sg14
(lp1319
g1
(g16
g3
Ntp1320
Rp1321
(dp1322
g20
F0.9888218641281128
sg21
F331.5
sg22
F180.5
sg23
I-1
sg24
I-1
sg25
I151
sg26
F0.9498448371887207
sg13
I56
sg27
I256
sg28
I426
sg29
g30
sg31
g30
sg32
F454.0
sg33
g30
sg34
F398.0
sbag1
(g16
g3
Ntp1323
Rp1324
(dp1325
g20
F0.9325383901596069
sg21
F358.0
sg22
F154.0
sg23
I-1
sg24
I-1
sg25
I204
sg26
F0.9325383901596069
sg13
I77
sg27
I256
sg28
I468
sg29
g30
sg31
g30
sg32
F506.5
sg33
g30
sg34
F429.5
sbag1
(g16
g3
Ntp1326
Rp1327
(dp1328
g20
F0.995032548904419
sg21
F346.5
sg22
F181.5
sg23
I-1
sg24
I-1
sg25
I165
sg26
F0.995032548904419
sg13
I69
sg27
I264
sg28
I126
sg29
g30
sg31
g30
sg32
F160.5
sg33
g30
sg34
F91.5
sbag1
(g16
g3
Ntp1329
Rp1330
(dp1331
g20
F0.9901283383369446
sg21
F349.5
sg22
F174.5
sg23
I-1
sg24
I-1
sg25
I175
sg26
F0.9698106646537781
sg13
I63
sg27
I262
sg28
I289
sg29
g30
sg31
g30
sg32
F320.5
sg33
g30
sg34
F257.5
sbag1
(g16
g3
Ntp1332
Rp1333
(dp1334
g20
F0.998172402381897
sg21
F354.5
sg22
F181.5
sg23
I-1
sg24
I-1
sg25
I173
sg26
F0.9887599945068359
sg13
I71
sg27
I268
sg28
I331
sg29
g30
sg31
g30
sg32
F366.5
sg33
g30
sg34
F295.5
sbag1
(g16
g3
Ntp1335
Rp1336
(dp1337
g20
F0.998433530330658
sg21
F375.5
sg22
F148.5
sg23
I-1
sg24
I-1
sg25
I227
sg26
F0.9938527345657349
sg13
I82
sg27
I262
sg28
I540
sg29
g30
sg31
g30
sg32
F581.0
sg33
g30
sg34
F499.0
sbag1
(g16
g3
Ntp1338
Rp1339
(dp1340
g20
F0.9971950054168701
sg21
F349.5
sg22
F194.5
sg23
I-1
sg24
I-1
sg25
I155
sg26
F0.9969316720962524
sg13
I54
sg27
I272
sg28
I60
sg29
g30
sg31
g30
sg32
F87.0
sg33
g30
sg34
F33.0
sbag1
(g16
g3
Ntp1341
Rp1342
(dp1343
g20
F0.9961110949516296
sg21
F342.0
sg22
F188.0
sg23
I-1
sg24
I-1
sg25
I154
sg26
F0.9958540201187134
sg13
I56
sg27
I265
sg28
I159
sg29
g30
sg31
g30
sg32
F187.0
sg33
g30
sg34
F131.0
sbag1
(g16
g3
Ntp1344
Rp1345
(dp1346
g20
F0.9919642210006714
sg21
F369.5
sg22
F162.5
sg23
I-1
sg24
I-1
sg25
I207
sg26
F0.9908566474914551
sg13
I78
sg27
I266
sg28
I513
sg29
g30
sg31
g30
sg32
F552.0
sg33
g30
sg34
F474.0
sbasg50
g9
sg25
I-1
sg51
g9
sbag1
(g2
g3
Ntp1347
Rp1348
(dp1349
g7
I-1
sg8
g9
sg10
I44
sg11
S'TUD-Crossing/frames_tensorbox/000045.jpg'
p1350
sg13
I-1
sg14
(lp1351
g1
(g16
g3
Ntp1352
Rp1353
(dp1354
g20
F0.9969494938850403
sg21
F333.5
sg22
F172.5
sg23
I-1
sg24
I-1
sg25
I161
sg26
F0.932530403137207
sg13
I55
sg27
I253
sg28
I432
sg29
g30
sg31
g30
sg32
F459.5
sg33
g30
sg34
F404.5
sbag1
(g16
g3
Ntp1355
Rp1356
(dp1357
g20
F0.9956478476524353
sg21
F352.0
sg22
F192.0
sg23
I-1
sg24
I-1
sg25
I160
sg26
F0.9955604076385498
sg13
I51
sg27
I272
sg28
I62
sg29
g30
sg31
g30
sg32
F87.5
sg33
g30
sg34
F36.5
sbag1
(g16
g3
Ntp1358
Rp1359
(dp1360
g20
F0.9961387515068054
sg21
F360.5
sg22
F171.5
sg23
I-1
sg24
I-1
sg25
I189
sg26
F0.9938549399375916
sg13
I70
sg27
I266
sg28
I294
sg29
g30
sg31
g30
sg32
F329.0
sg33
g30
sg34
F259.0
sbag1
(g16
g3
Ntp1361
Rp1362
(dp1363
g20
F0.9994970560073853
sg21
F372.5
sg22
F141.5
sg23
I-1
sg24
I-1
sg25
I231
sg26
F0.9987848401069641
sg13
I91
sg27
I257
sg28
I526
sg29
g30
sg31
g30
sg32
F571.5
sg33
g30
sg34
F480.5
sbag1
(g16
g3
Ntp1364
Rp1365
(dp1366
g20
F0.974518895149231
sg21
F351.0
sg22
F189.0
sg23
I-1
sg24
I-1
sg25
I162
sg26
F0.9595469832420349
sg13
I58
sg27
I270
sg28
I108
sg29
g30
sg31
g30
sg32
F137.0
sg33
g30
sg34
F79.0
sbag1
(g16
g3
Ntp1367
Rp1368
(dp1369
g20
F0.9965971112251282
sg21
F342.0
sg22
F188.0
sg23
I-1
sg24
I-1
sg25
I154
sg26
F0.9961198568344116
sg13
I57
sg27
I265
sg28
I160
sg29
g30
sg31
g30
sg32
F188.5
sg33
g30
sg34
F131.5
sbag1
(g16
g3
Ntp1370
Rp1371
(dp1372
g20
F0.998629093170166
sg21
F354.5
sg22
F177.5
sg23
I-1
sg24
I-1
sg25
I177
sg26
F0.9980720281600952
sg13
I73
sg27
I266
sg28
I340
sg29
g30
sg31
g30
sg32
F376.5
sg33
g30
sg34
F303.5
sbag1
(g16
g3
Ntp1373
Rp1374
(dp1375
g20
F0.2647911012172699
sg21
F316.5
sg22
F201.5
sg23
I-1
sg24
I-1
sg25
I115
sg26
F0.21849361062049866
sg13
I39
sg27
I259
sg28
I276
sg29
g30
sg31
g30
sg32
F295.5
sg33
g30
sg34
F256.5
sbasg50
g9
sg25
I-1
sg51
g9
sbag1
(g2
g3
Ntp1376
Rp1377
(dp1378
g7
I-1
sg8
g9
sg10
I45
sg11
S'TUD-Crossing/frames_tensorbox/000046.jpg'
p1379
sg13
I-1
sg14
(lp1380
g1
(g16
g3
Ntp1381
Rp1382
(dp1383
g20
F0.9969769716262817
sg21
F352.5
sg22
F191.5
sg23
I-1
sg24
I-1
sg25
I161
sg26
F0.9954414367675781
sg13
I55
sg27
I272
sg28
I67
sg29
g30
sg31
g30
sg32
F94.5
sg33
g30
sg34
F39.5
sbag1
(g16
g3
Ntp1384
Rp1385
(dp1386
g20
F0.9933286905288696
sg21
F351.0
sg22
F189.0
sg23
I-1
sg24
I-1
sg25
I162
sg26
F0.992463231086731
sg13
I62
sg27
I270
sg28
I130
sg29
g30
sg31
g30
sg32
F161.0
sg33
g30
sg34
F99.0
sbag1
(g16
g3
Ntp1387
Rp1388
(dp1389
g20
F0.9858930706977844
sg21
F348.0
sg22
F182.0
sg23
I-1
sg24
I-1
sg25
I166
sg26
F0.979832112789154
sg13
I58
sg27
I265
sg28
I301
sg29
g30
sg31
g30
sg32
F330.0
sg33
g30
sg34
F272.0
sbag1
(g16
g3
Ntp1390
Rp1391
(dp1392
g20
F0.9994879961013794
sg21
F369.0
sg22
F143.0
sg23
I-1
sg24
I-1
sg25
I226
sg26
F0.998809814453125
sg13
I83
sg27
I256
sg28
I524
sg29
g30
sg31
g30
sg32
F565.5
sg33
g30
sg34
F482.5
sbag1
(g16
g3
Ntp1393
Rp1394
(dp1395
g20
F0.9959871172904968
sg21
F345.0
sg22
F189.0
sg23
I-1
sg24
I-1
sg25
I156
sg26
F0.994636595249176
sg13
I54
sg27
I267
sg28
I170
sg29
g30
sg31
g30
sg32
F197.0
sg33
g30
sg34
F143.0
sbag1
(g16
g3
Ntp1396
Rp1397
(dp1398
g20
F0.9602606892585754
sg21
F345.0
sg22
F175.0
sg23
I-1
sg24
I-1
sg25
I170
sg26
F0.9424223899841309
sg13
I70
sg27
I260
sg28
I304
sg29
g30
sg31
g30
sg32
F339.0
sg33
g30
sg34
F269.0
sbag1
(g16
g3
Ntp1399
Rp1400
(dp1401
g20
F0.8892354369163513
sg21
F339.0
sg22
F171.0
sg23
I-1
sg24
I-1
sg25
I168
sg26
F0.8679366707801819
sg13
I50
sg27
I255
sg28
I433
sg29
g30
sg31
g30
sg32
F458.0
sg33
g30
sg34
F408.0
sbasg50
g9
sg25
I-1
sg51
g9
sbag1
(g2
g3
Ntp1402
Rp1403
(dp1404
g7
I-1
sg8
g9
sg10
I46
sg11
S'TUD-Crossing/frames_tensorbox/000047.jpg'
p1405
sg13
I-1
sg14
(lp1406
g1
(g16
g3
Ntp1407
Rp1408
(dp1409
g20
F0.9965319633483887
sg21
F345.0
sg22
F187.0
sg23
I-1
sg24
I-1
sg25
I158
sg26
F0.9382676482200623
sg13
I63
sg27
I266
sg28
I172
sg29
g30
sg31
g30
sg32
F203.5
sg33
g30
sg34
F140.5
sbag1
(g16
g3
Ntp1410
Rp1411
(dp1412
g20
F0.9932656288146973
sg21
F331.5
sg22
F174.5
sg23
I-1
sg24
I-1
sg25
I157
sg26
F0.978285014629364
sg13
I47
sg27
I253
sg28
I440
sg29
g30
sg31
g30
sg32
F463.5
sg33
g30
sg34
F416.5
sbag1
(g16
g3
Ntp1413
Rp1414
(dp1415
g20
F0.9950928688049316
sg21
F357.5
sg22
F176.5
sg23
I-1
sg24
I-1
sg25
I181
sg26
F0.9936936497688293
sg13
I65
sg27
I267
sg28
I128
sg29
g30
sg31
g30
sg32
F160.5
sg33
g30
sg34
F95.5
sbag1
(g16
g3
Ntp1416
Rp1417
(dp1418
g20
F0.9861410856246948
sg21
F348.0
sg22
F176.0
sg23
I-1
sg24
I-1
sg25
I172
sg26
F0.9810606241226196
sg13
I59
sg27
I262
sg28
I315
sg29
g30
sg31
g30
sg32
F344.5
sg33
g30
sg34
F285.5
sbag1
(g16
g3
Ntp1419
Rp1420
(dp1421
g20
F0.9992569088935852
sg21
F367.5
sg22
F148.5
sg23
I-1
sg24
I-1
sg25
I219
sg26
F0.99812251329422
sg13
I77
sg27
I258
sg28
I525
sg29
g30
sg31
g30
sg32
F563.5
sg33
g30
sg34
F486.5
sbag1
(g16
g3
Ntp1422
Rp1423
(dp1424
g20
F0.9978960752487183
sg21
F353.5
sg22
F190.5
sg23
I-1
sg24
I-1
sg25
I163
sg26
F0.9974485039710999
sg13
I63
sg27
I272
sg28
I69
sg29
g30
sg31
g30
sg32
F100.5
sg33
g30
sg34
F37.5
sbag1
(g16
g3
Ntp1425
Rp1426
(dp1427
g20
F0.9985635876655579
sg21
F352.5
sg22
F173.5
sg23
I-1
sg24
I-1
sg25
I179
sg26
F0.998191773891449
sg13
I73
sg27
I263
sg28
I349
sg29
g30
sg31
g30
sg32
F385.5
sg33
g30
sg34
F312.5
sbag1
(g16
g3
Ntp1428
Rp1429
(dp1430
g20
F0.3371293246746063
sg21
F346.5
sg22
F185.5
sg23
I-1
sg24
I-1
sg25
I161
sg26
F0.3371293246746063
sg13
I55
sg27
I266
sg28
I511
sg29
g30
sg31
g30
sg32
F538.5
sg33
g30
sg34
F483.5
sbasg50
g9
sg25
I-1
sg51
g9
sbag1
(g2
g3
Ntp1431
Rp1432
(dp1433
g7
I-1
sg8
g9
sg10
I47
sg11
S'TUD-Crossing/frames_tensorbox/000048.jpg'
p1434
sg13
I-1
sg14
(lp1435
g1
(g16
g3
Ntp1436
Rp1437
(dp1438
g20
F0.9986951947212219
sg21
F348.0
sg22
F180.0
sg23
I-1
sg24
I-1
sg25
I168
sg26
F0.9883032441139221
sg13
I69
sg27
I264
sg28
I355
sg29
g30
sg31
g30
sg32
F389.5
sg33
g30
sg34
F320.5
sbag1
(g16
g3
Ntp1439
Rp1440
(dp1441
g20
F0.9956627488136292
sg21
F356.0
sg22
F174.0
sg23
I-1
sg24
I-1
sg25
I182
sg26
F0.9937393665313721
sg13
I65
sg27
I265
sg28
I132
sg29
g30
sg31
g30
sg32
F164.5
sg33
g30
sg34
F99.5
sbag1
(g16
g3
Ntp1442
Rp1443
(dp1444
g20
F0.9862995743751526
sg21
F345.5
sg22
F178.5
sg23
I-1
sg24
I-1
sg25
I167
sg26
F0.9823637008666992
sg13
I61
sg27
I262
sg28
I319
sg29
g30
sg31
g30
sg32
F349.5
sg33
g30
sg34
F288.5
sbag1
(g16
g3
Ntp1445
Rp1446
(dp1447
g20
F0.9924910664558411
sg21
F332.0
sg22
F170.0
sg23
I-1
sg24
I-1
sg25
I162
sg26
F0.992485761642456
sg13
I46
sg27
I251
sg28
I449
sg29
g30
sg31
g30
sg32
F472.0
sg33
g30
sg34
F426.0
sbag1
(g16
g3
Ntp1448
Rp1449
(dp1450
g20
F0.9990795850753784
sg21
F369.0
sg22
F139.0
sg23
I-1
sg24
I-1
sg25
I230
sg26
F0.9979408383369446
sg13
I73
sg27
I254
sg28
I527
sg29
g30
sg31
g30
sg32
F563.5
sg33
g30
sg34
F490.5
sbag1
(g16
g3
Ntp1451
Rp1452
(dp1453
g20
F0.9975171089172363
sg21
F359.5
sg22
F188.5
sg23
I-1
sg24
I-1
sg25
I171
sg26
F0.9970961809158325
sg13
I67
sg27
I274
sg28
I67
sg29
g30
sg31
g30
sg32
F100.5
sg33
g30
sg34
F33.5
sbag1
(g16
g3
Ntp1454
Rp1455
(dp1456
g20
F0.9926895499229431
sg21
F350.0
sg22
F192.0
sg23
I-1
sg24
I-1
sg25
I158
sg26
F0.9709504246711731
sg13
I67
sg27
I271
sg28
I170
sg29
g30
sg31
g30
sg32
F203.5
sg33
g30
sg34
F136.5
sbasg50
g9
sg25
I-1
sg51
g9
sbag1
(g2
g3
Ntp1457
Rp1458
(dp1459
g7
I-1
sg8
g9
sg10
I48
sg11
S'TUD-Crossing/frames_tensorbox/000049.jpg'
p1460
sg13
I-1
sg14
(lp1461
g1
(g16
g3
Ntp1462
Rp1463
(dp1464
g20
F0.9855951070785522
sg21
F345.0
sg22
F181.0
sg23
I-1
sg24
I-1
sg25
I164
sg26
F0.9821319580078125
sg13
I56
sg27
I263
sg28
I163
sg29
g30
sg31
g30
sg32
F191.0
sg33
g30
sg34
F135.0
sbag1
(g16
g3
Ntp1465
Rp1466
(dp1467
g20
F0.8303368091583252
sg21
F335.0
sg22
F189.0
sg23
I-1
sg24
I-1
sg25
I146
sg26
F0.8303368091583252
sg13
I45
sg27
I262
sg28
I157
sg29
g30
sg31
g30
sg32
F179.5
sg33
g30
sg34
F134.5
sbag1
(g16
g3
Ntp1468
Rp1469
(dp1470
g20
F0.9873991012573242
sg21
F326.5
sg22
F179.5
sg23
I-1
sg24
I-1
sg25
I147
sg26
F0.9741467833518982
sg13
I42
sg27
I253
sg28
I459
sg29
g30
sg31
g30
sg32
F480.0
sg33
g30
sg34
F438.0
sbag1
(g16
g3
Ntp1471
Rp1472
(dp1473
g20
F0.9860775470733643
sg21
F367.0
sg22
F153.0
sg23
I-1
sg24
I-1
sg25
I214
sg26
F0.9837755560874939
sg13
I68
sg27
I260
sg28
I513
sg29
g30
sg31
g30
sg32
F547.0
sg33
g30
sg34
F479.0
sbag1
(g16
g3
Ntp1474
Rp1475
(dp1476
g20
F0.9886085987091064
sg21
F346.5
sg22
F183.5
sg23
I-1
sg24
I-1
sg25
I163
sg26
F0.9840649962425232
sg13
I61
sg27
I265
sg28
I321
sg29
g30
sg31
g30
sg32
F351.5
sg33
g30
sg34
F290.5
sbag1
(g16
g3
Ntp1477
Rp1478
(dp1479
g20
F0.9945735335350037
sg21
F372.5
sg22
F155.5
sg23
I-1
sg24
I-1
sg25
I217
sg26
F0.9934694766998291
sg13
I63
sg27
I264
sg28
I504
sg29
g30
sg31
g30
sg32
F535.5
sg33
g30
sg34
F472.5
sbag1
(g16
g3
Ntp1480
Rp1481
(dp1482
g20
F0.9970654845237732
sg21
F352.5
sg22
F189.5
sg23
I-1
sg24
I-1
sg25
I163
sg26
F0.9965623021125793
sg13
I60
sg27
I271
sg28
I71
sg29
g30
sg31
g30
sg32
F101.0
sg33
g30
sg34
F41.0
sbag1
(g16
g3
Ntp1483
Rp1484
(dp1485
g20
F0.8270024061203003
sg21
F352.0
sg22
F188.0
sg23
I-1
sg24
I-1
sg25
I164
sg26
F0.8270024061203003
sg13
I54
sg27
I270
sg28
I128
sg29
g30
sg31
g30
sg32
F155.0
sg33
g30
sg34
F101.0
sbag1
(g16
g3
Ntp1486
Rp1487
(dp1488
g20
F0.999122679233551
sg21
F353.5
sg22
F180.5
sg23
I-1
sg24
I-1
sg25
I173
sg26
F0.9989467263221741
sg13
I77
sg27
I267
sg28
I363
sg29
g30
sg31
g30
sg32
F401.5
sg33
g30
sg34
F324.5
sbasg50
g9
sg25
I-1
sg51
g9
sbag1
(g2
g3
Ntp1489
Rp1490
(dp1491
g7
I-1
sg8
g9
sg10
I49
sg11
S'TUD-Crossing/frames_tensorbox/000050.jpg'
p1492
sg13
I-1
sg14
(lp1493
g1
(g16
g3
Ntp1494
Rp1495
(dp1496
g20
F0.9935723543167114
sg21
F347.0
sg22
F181.0
sg23
I-1
sg24
I-1
sg25
I166
sg26
F0.9732328057289124
sg13
I60
sg27
I264
sg28
I164
sg29
g30
sg31
g30
sg32
F194.0
sg33
g30
sg34
F134.0
sbag1
(g16
g3
Ntp1497
Rp1498
(dp1499
g20
F0.9947395920753479
sg21
F352.0
sg22
F176.0
sg23
I-1
sg24
I-1
sg25
I176
sg26
F0.9903541803359985
sg13
I65
sg27
I264
sg28
I330
sg29
g30
sg31
g30
sg32
F362.5
sg33
g30
sg34
F297.5
sbag1
(g16
g3
Ntp1500
Rp1501
(dp1502
g20
F0.9986580610275269
sg21
F351.0
sg22
F175.0
sg23
I-1
sg24
I-1
sg25
I176
sg26
F0.9981861710548401
sg13
I72
sg27
I263
sg28
I367
sg29
g30
sg31
g30
sg32
F403.0
sg33
g30
sg34
F331.0
sbag1
(g16
g3
Ntp1503
Rp1504
(dp1505
g20
F0.9973239898681641
sg21
F349.5
sg22
F188.5
sg23
I-1
sg24
I-1
sg25
I161
sg26
F0.9969483017921448
sg13
I55
sg27
I269
sg28
I77
sg29
g30
sg31
g30
sg32
F104.5
sg33
g30
sg34
F49.5
sbag1
(g16
g3
Ntp1506
Rp1507
(dp1508
g20
F0.9977752566337585
sg21
F348.5
sg22
F185.5
sg23
I-1
sg24
I-1
sg25
I163
sg26
F0.9973446726799011
sg13
I68
sg27
I267
sg28
I189
sg29
g30
sg31
g30
sg32
F223.0
sg33
g30
sg34
F155.0
sbag1
(g16
g3
Ntp1509
Rp1510
(dp1511
g20
F0.9372451901435852
sg21
F337.0
sg22
F181.0
sg23
I-1
sg24
I-1
sg25
I156
sg26
F0.9008537530899048
sg13
I48
sg27
I259
sg28
I475
sg29
g30
sg31
g30
sg32
F499.0
sg33
g30
sg34
F451.0
sbag1
(g16
g3
Ntp1512
Rp1513
(dp1514
g20
F0.9984844326972961
sg21
F370.5
sg22
F163.5
sg23
I-1
sg24
I-1
sg25
I207
sg26
F0.9982149600982666
sg13
I72
sg27
I267
sg28
I501
sg29
g30
sg31
g30
sg32
F537.0
sg33
g30
sg34
F465.0
sbag1
(g16
g3
Ntp1515
Rp1516
(dp1517
g20
F0.999309778213501
sg21
F359.0
sg22
F159.0
sg23
I-1
sg24
I-1
sg25
I200
sg26
F0.9989264607429504
sg13
I73
sg27
I259
sg28
I551
sg29
g30
sg31
g30
sg32
F587.5
sg33
g30
sg34
F514.5
sbasg50
g9
sg25
I-1
sg51
g9
sbag1
(g2
g3
Ntp1518
Rp1519
(dp1520
g7
I-1
sg8
g9
sg10
I50
sg11
S'TUD-Crossing/frames_tensorbox/000051.jpg'
p1521
sg13
I-1
sg14
(lp1522
g1
(g16
g3
Ntp1523
Rp1524
(dp1525
g20
F0.9990763664245605
sg21
F381.0
sg22
F149.0
sg23
I-1
sg24
I-1
sg25
I232
sg26
F0.9981958270072937
sg13
I88
sg27
I265
sg28
I499
sg29
g30
sg31
g30
sg32
F543.0
sg33
g30
sg34
F455.0
sbag1
(g16
g3
Ntp1526
Rp1527
(dp1528
g20
F0.9993459582328796
sg21
F356.5
sg22
F161.5
sg23
I-1
sg24
I-1
sg25
I195
sg26
F0.9969556331634521
sg13
I66
sg27
I259
sg28
I554
sg29
g30
sg31
g30
sg32
F587.0
sg33
g30
sg34
F521.0
sbag1
(g16
g3
Ntp1529
Rp1530
(dp1531
g20
F0.9901170134544373
sg21
F347.0
sg22
F181.0
sg23
I-1
sg24
I-1
sg25
I166
sg26
F0.988324761390686
sg13
I54
sg27
I264
sg28
I169
sg29
g30
sg31
g30
sg32
F196.0
sg33
g30
sg34
F142.0
sbag1
(g16
g3
Ntp1532
Rp1533
(dp1534
g20
F0.9885221719741821
sg21
F348.0
sg22
F170.0
sg23
I-1
sg24
I-1
sg25
I178
sg26
F0.9864935874938965
sg13
I55
sg27
I259
sg28
I328
sg29
g30
sg31
g30
sg32
F355.5
sg33
g30
sg34
F300.5
sbag1
(g16
g3
Ntp1535
Rp1536
(dp1537
g20
F0.9972226619720459
sg21
F349.5
sg22
F186.5
sg23
I-1
sg24
I-1
sg25
I163
sg26
F0.9960986375808716
sg13
I54
sg27
I268
sg28
I80
sg29
g30
sg31
g30
sg32
F107.0
sg33
g30
sg34
F53.0
sbag1
(g16
g3
Ntp1538
Rp1539
(dp1540
g20
F0.996981680393219
sg21
F346.5
sg22
F187.5
sg23
I-1
sg24
I-1
sg25
I159
sg26
F0.9967396855354309
sg13
I68
sg27
I267
sg28
I191
sg29
g30
sg31
g30
sg32
F225.0
sg33
g30
sg34
F157.0
sbag1
(g16
g3
Ntp1541
Rp1542
(dp1543
g20
F0.9985195994377136
sg21
F355.5
sg22
F170.5
sg23
I-1
sg24
I-1
sg25
I185
sg26
F0.9983354210853577
sg13
I72
sg27
I263
sg28
I369
sg29
g30
sg31
g30
sg32
F405.0
sg33
g30
sg34
F333.0
sbasg50
g9
sg25
I-1
sg51
g9
sbag1
(g2
g3
Ntp1544
Rp1545
(dp1546
g7
I-1
sg8
g9
sg10
I51
sg11
S'TUD-Crossing/frames_tensorbox/000052.jpg'
p1547
sg13
I-1
sg14
(lp1548
g1
(g16
g3
Ntp1549
Rp1550
(dp1551
g20
F0.9954442977905273
sg21
F346.0
sg22
F186.0
sg23
I-1
sg24
I-1
sg25
I160
sg26
F0.983116865158081
sg13
I53
sg27
I266
sg28
I83
sg29
g30
sg31
g30
sg32
F109.5
sg33
g30
sg34
F56.5
sbag1
(g16
g3
Ntp1552
Rp1553
(dp1554
g20
F0.9887663722038269
sg21
F336.5
sg22
F177.5
sg23
I-1
sg24
I-1
sg25
I159
sg26
F0.9778223633766174
sg13
I51
sg27
I257
sg28
I333
sg29
g30
sg31
g30
sg32
F358.5
sg33
g30
sg34
F307.5
sbag1
(g16
g3
Ntp1555
Rp1556
(dp1557
g20
F0.9927921295166016
sg21
F349.5
sg22
F176.5
sg23
I-1
sg24
I-1
sg25
I173
sg26
F0.9908728003501892
sg13
I48
sg27
I263
sg28
I166
sg29
g30
sg31
g30
sg32
F190.0
sg33
g30
sg34
F142.0
sbag1
(g16
g3
Ntp1558
Rp1559
(dp1560
g20
F0.9992557168006897
sg21
F371.5
sg22
F138.5
sg23
I-1
sg24
I-1
sg25
I233
sg26
F0.9987753033638
sg13
I105
sg27
I255
sg28
I483
sg29
g30
sg31
g30
sg32
F535.5
sg33
g30
sg34
F430.5
sbag1
(g16
g3
Ntp1561
Rp1562
(dp1563
g20
F0.99905925989151
sg21
F361.5
sg22
F160.5
sg23
I-1
sg24
I-1
sg25
I201
sg26
F0.9988928437232971
sg13
I70
sg27
I261
sg28
I560
sg29
g30
sg31
g30
sg32
F595.0
sg33
g30
sg34
F525.0
sbag1
(g16
g3
Ntp1564
Rp1565
(dp1566
g20
F0.9958617687225342
sg21
F346.0
sg22
F188.0
sg23
I-1
sg24
I-1
sg25
I158
sg26
F0.9955625534057617
sg13
I64
sg27
I267
sg28
I201
sg29
g30
sg31
g30
sg32
F233.0
sg33
g30
sg34
F169.0
sbag1
(g16
g3
Ntp1567
Rp1568
(dp1569
g20
F0.9982874989509583
sg21
F352.0
sg22
F172.0
sg23
I-1
sg24
I-1
sg25
I180
sg26
F0.9980241060256958
sg13
I69
sg27
I262
sg28
I373
sg29
g30
sg31
g30
sg32
F407.5
sg33
g30
sg34
F338.5
sbag1
(g16
g3
Ntp1570
Rp1571
(dp1572
g20
F0.4597109258174896
sg21
F346.5
sg22
F161.5
sg23
I-1
sg24
I-1
sg25
I185
sg26
F0.4597109258174896
sg13
I71
sg27
I254
sg28
I477
sg29
g30
sg31
g30
sg32
F512.5
sg33
g30
sg34
F441.5
sbasg50
g9
sg25
I-1
sg51
g9
sbag1
(g2
g3
Ntp1573
Rp1574
(dp1575
g7
I-1
sg8
g9
sg10
I52
sg11
S'TUD-Crossing/frames_tensorbox/000053.jpg'
p1576
sg13
I-1
sg14
(lp1577
g1
(g16
g3
Ntp1578
Rp1579
(dp1580
g20
F0.9954677820205688
sg21
F344.5
sg22
F179.5
sg23
I-1
sg24
I-1
sg25
I165
sg26
F0.9939963817596436
sg13
I49
sg27
I262
sg28
I85
sg29
g30
sg31
g30
sg32
F109.5
sg33
g30
sg34
F60.5
sbag1
(g16
g3
Ntp1581
Rp1582
(dp1583
g20
F0.9877278804779053
sg21
F348.5
sg22
F173.5
sg23
I-1
sg24
I-1
sg25
I175
sg26
F0.9682180285453796
sg13
I46
sg27
I261
sg28
I166
sg29
g30
sg31
g30
sg32
F189.0
sg33
g30
sg34
F143.0
sbag1
(g16
g3
Ntp1584
Rp1585
(dp1586
g20
F0.9923048615455627
sg21
F343.0
sg22
F173.0
sg23
I-1
sg24
I-1
sg25
I170
sg26
F0.987441897392273
sg13
I51
sg27
I258
sg28
I334
sg29
g30
sg31
g30
sg32
F359.5
sg33
g30
sg34
F308.5
sbag1
(g16
g3
Ntp1587
Rp1588
(dp1589
g20
F0.9992148876190186
sg21
F357.0
sg22
F171.0
sg23
I-1
sg24
I-1
sg25
I186
sg26
F0.993057370185852
sg13
I66
sg27
I264
sg28
I564
sg29
g30
sg31
g30
sg32
F597.0
sg33
g30
sg34
F531.0
sbag1
(g16
g3
Ntp1590
Rp1591
(dp1592
g20
F0.9991288781166077
sg21
F378.0
sg22
F138.0
sg23
I-1
sg24
I-1
sg25
I240
sg26
F0.9990146160125732
sg13
I112
sg27
I258
sg28
I479
sg29
g30
sg31
g30
sg32
F535.0
sg33
g30
sg34
F423.0
sbag1
(g16
g3
Ntp1593
Rp1594
(dp1595
g20
F0.9958609938621521
sg21
F349.0
sg22
F187.0
sg23
I-1
sg24
I-1
sg25
I162
sg26
F0.995322048664093
sg13
I61
sg27
I268
sg28
I207
sg29
g30
sg31
g30
sg32
F237.5
sg33
g30
sg34
F176.5
sbag1
(g16
g3
Ntp1596
Rp1597
(dp1598
g20
F0.9951885938644409
sg21
F351.0
sg22
F171.0
sg23
I-1
sg24
I-1
sg25
I180
sg26
F0.9943219423294067
sg13
I58
sg27
I261
sg28
I378
sg29
g30
sg31
g30
sg32
F407.0
sg33
g30
sg34
F349.0
sbasg50
g9
sg25
I-1
sg51
g9
sbag1
(g2
g3
Ntp1599
Rp1600
(dp1601
g7
I-1
sg8
g9
sg10
I53
sg11
S'TUD-Crossing/frames_tensorbox/000054.jpg'
p1602
sg13
I-1
sg14
(lp1603
g1
(g16
g3
Ntp1604
Rp1605
(dp1606
g20
F0.9794727563858032
sg21
F365.5
sg22
F140.5
sg23
I-1
sg24
I-1
sg25
I225
sg26
F0.9794727563858032
sg13
I82
sg27
I253
sg28
I530
sg29
g30
sg31
g30
sg32
F571.0
sg33
g30
sg34
F489.0
sbag1
(g16
g3
Ntp1607
Rp1608
(dp1609
g20
F0.9969146251678467
sg21
F344.5
sg22
F183.5
sg23
I-1
sg24
I-1
sg25
I161
sg26
F0.9967283010482788
sg13
I53
sg27
I264
sg28
I88
sg29
g30
sg31
g30
sg32
F114.5
sg33
g30
sg34
F61.5
sbag1
(g16
g3
Ntp1610
Rp1611
(dp1612
g20
F0.9905374646186829
sg21
F345.0
sg22
F177.0
sg23
I-1
sg24
I-1
sg25
I168
sg26
F0.9883876442909241
sg13
I54
sg27
I261
sg28
I171
sg29
g30
sg31
g30
sg32
F198.0
sg33
g30
sg34
F144.0
sbag1
(g16
g3
Ntp1613
Rp1614
(dp1615
g20
F0.9954805374145508
sg21
F345.5
sg22
F182.5
sg23
I-1
sg24
I-1
sg25
I163
sg26
F0.9936174154281616
sg13
I58
sg27
I264
sg28
I208
sg29
g30
sg31
g30
sg32
F237.0
sg33
g30
sg34
F179.0
sbag1
(g16
g3
Ntp1616
Rp1617
(dp1618
g20
F0.999632716178894
sg21
F370.5
sg22
F127.5
sg23
I-1
sg24
I-1
sg25
I243
sg26
F0.9992245435714722
sg13
I107
sg27
I249
sg28
I473
sg29
g30
sg31
g30
sg32
F526.5
sg33
g30
sg34
F419.5
sbag1
(g16
g3
Ntp1619
Rp1620
(dp1621
g20
F0.9947689771652222
sg21
F349.5
sg22
F178.5
sg23
I-1
sg24
I-1
sg25
I171
sg26
F0.9932597279548645
sg13
I58
sg27
I264
sg28
I341
sg29
g30
sg31
g30
sg32
F370.0
sg33
g30
sg34
F312.0
sbag1
(g16
g3
Ntp1622
Rp1623
(dp1624
g20
F0.9966622591018677
sg21
F350.0
sg22
F172.0
sg23
I-1
sg24
I-1
sg25
I178
sg26
F0.9938740134239197
sg13
I55
sg27
I261
sg28
I387
sg29
g30
sg31
g30
sg32
F414.5
sg33
g30
sg34
F359.5
sbag1
(g16
g3
Ntp1625
Rp1626
(dp1627
g20
F0.3421994149684906
sg21
F322.0
sg22
F188.0
sg23
I-1
sg24
I-1
sg25
I134
sg26
F0.3421994149684906
sg13
I40
sg27
I255
sg28
I218
sg29
g30
sg31
g30
sg32
F238.0
sg33
g30
sg34
F198.0
sbasg50
g9
sg25
I-1
sg51
g9
sbag1
(g2
g3
Ntp1628
Rp1629
(dp1630
g7
I-1
sg8
g9
sg10
I54
sg11
S'TUD-Crossing/frames_tensorbox/000055.jpg'
p1631
sg13
I-1
sg14
(lp1632
g1
(g16
g3
Ntp1633
Rp1634
(dp1635
g20
F0.9981498718261719
sg21
F340.0
sg22
F186.0
sg23
I-1
sg24
I-1
sg25
I154
sg26
F0.9930601119995117
sg13
I50
sg27
I263
sg28
I90
sg29
g30
sg31
g30
sg32
F115.0
sg33
g30
sg34
F65.0
sbag1
(g16
g3
Ntp1636
Rp1637
(dp1638
g20
F0.9961885809898376
sg21
F347.5
sg22
F170.5
sg23
I-1
sg24
I-1
sg25
I177
sg26
F0.9905339479446411
sg13
I68
sg27
I259
sg28
I343
sg29
g30
sg31
g30
sg32
F377.0
sg33
g30
sg34
F309.0
sbag1
(g16
g3
Ntp1639
Rp1640
(dp1641
g20
F0.982083797454834
sg21
F351.5
sg22
F176.5
sg23
I-1
sg24
I-1
sg25
I175
sg26
F0.982083797454834
sg13
I60
sg27
I264
sg28
I382
sg29
g30
sg31
g30
sg32
F412.0
sg33
g30
sg34
F352.0
sbag1
(g16
g3
Ntp1642
Rp1643
(dp1644
g20
F0.9987302422523499
sg21
F358.5
sg22
F167.5
sg23
I-1
sg24
I-1
sg25
I191
sg26
F0.9985547661781311
sg13
I70
sg27
I263
sg28
I575
sg29
g30
sg31
g30
sg32
F610.0
sg33
g30
sg34
F540.0
sbag1
(g16
g3
Ntp1645
Rp1646
(dp1647
g20
F0.9925864338874817
sg21
F350.0
sg22
F172.0
sg23
I-1
sg24
I-1
sg25
I178
sg26
F0.9910883903503418
sg13
I54
sg27
I261
sg28
I178
sg29
g30
sg31
g30
sg32
F205.0
sg33
g30
sg34
F151.0
sbag1
(g16
g3
Ntp1648
Rp1649
(dp1650
g20
F0.9962550401687622
sg21
F345.5
sg22
F178.5
sg23
I-1
sg24
I-1
sg25
I167
sg26
F0.9932259917259216
sg13
I61
sg27
I262
sg28
I209
sg29
g30
sg31
g30
sg32
F239.5
sg33
g30
sg34
F178.5
sbag1
(g16
g3
Ntp1651
Rp1652
(dp1653
g20
F0.9994022846221924
sg21
F366.5
sg22
F135.5
sg23
I-1
sg24
I-1
sg25
I231
sg26
F0.9992984533309937
sg13
I102
sg27
I251
sg28
I479
sg29
g30
sg31
g30
sg32
F530.0
sg33
g30
sg34
F428.0
sbasg50
g9
sg25
I-1
sg51
g9
sbag1
(g2
g3
Ntp1654
Rp1655
(dp1656
g7
I-1
sg8
g9
sg10
I55
sg11
S'TUD-Crossing/frames_tensorbox/000056.jpg'
p1657
sg13
I-1
sg14
(lp1658
g1
(g16
g3
Ntp1659
Rp1660
(dp1661
g20
F0.9802430272102356
sg21
F336.0
sg22
F176.0
sg23
I-1
sg24
I-1
sg25
I160
sg26
F0.9802430272102356
sg13
I51
sg27
I256
sg28
I204
sg29
g30
sg31
g30
sg32
F229.5
sg33
g30
sg34
F178.5
sbag1
(g16
g3
Ntp1662
Rp1663
(dp1664
g20
F0.9975899457931519
sg21
F342.5
sg22
F187.5
sg23
I-1
sg24
I-1
sg25
I155
sg26
F0.9932224750518799
sg13
I50
sg27
I265
sg28
I92
sg29
g30
sg31
g30
sg32
F117.0
sg33
g30
sg34
F67.0
sbag1
(g16
g3
Ntp1665
Rp1666
(dp1667
g20
F0.9959008097648621
sg21
F350.0
sg22
F170.0
sg23
I-1
sg24
I-1
sg25
I180
sg26
F0.9874421954154968
sg13
I77
sg27
I260
sg28
I350
sg29
g30
sg31
g30
sg32
F388.5
sg33
g30
sg34
F311.5
sbag1
(g16
g3
Ntp1668
Rp1669
(dp1670
g20
F0.9977262616157532
sg21
F356.5
sg22
F175.5
sg23
I-1
sg24
I-1
sg25
I181
sg26
F0.9847593903541565
sg13
I68
sg27
I266
sg28
I400
sg29
g30
sg31
g30
sg32
F434.0
sg33
g30
sg34
F366.0
sbag1
(g16
g3
Ntp1671
Rp1672
(dp1673
g20
F0.9983522891998291
sg21
F355.0
sg22
F153.0
sg23
I-1
sg24
I-1
sg25
I202
sg26
F0.9928655624389648
sg13
I83
sg27
I254
sg28
I476
sg29
g30
sg31
g30
sg32
F517.5
sg33
g30
sg34
F434.5
sbag1
(g16
g3
Ntp1674
Rp1675
(dp1676
g20
F0.9989680051803589
sg21
F362.5
sg22
F169.5
sg23
I-1
sg24
I-1
sg25
I193
sg26
F0.9985854625701904
sg13
I68
sg27
I266
sg28
I582
sg29
g30
sg31
g30
sg32
F616.0
sg33
g30
sg34
F548.0
sbag1
(g16
g3
Ntp1677
Rp1678
(dp1679
g20
F0.9947104454040527
sg21
F345.5
sg22
F176.5
sg23
I-1
sg24
I-1
sg25
I169
sg26
F0.9919412136077881
sg13
I62
sg27
I261
sg28
I185
sg29
g30
sg31
g30
sg32
F216.0
sg33
g30
sg34
F154.0
sbag1
(g16
g3
Ntp1680
Rp1681
(dp1682
g20
F0.9979769587516785
sg21
F352.5
sg22
F159.5
sg23
I-1
sg24
I-1
sg25
I193
sg26
F0.9068986177444458
sg13
I80
sg27
I256
sg28
I481
sg29
g30
sg31
g30
sg32
F521.0
sg33
g30
sg34
F441.0
sbag1
(g16
g3
Ntp1683
Rp1684
(dp1685
g20
F0.2866615653038025
sg21
F290.0
sg22
F-244.0
sg23
I-1
sg24
I-1
sg25
I534
sg26
F0.2866615653038025
sg13
I157
sg27
I23
sg28
I93
sg29
g30
sg31
g30
sg32
F171.5
sg33
g30
sg34
F14.5
sbasg50
g9
sg25
I-1
sg51
g9
sbag1
(g2
g3
Ntp1686
Rp1687
(dp1688
g7
I-1
sg8
g9
sg10
I56
sg11
S'TUD-Crossing/frames_tensorbox/000057.jpg'
p1689
sg13
I-1
sg14
(lp1690
g1
(g16
g3
Ntp1691
Rp1692
(dp1693
g20
F0.9984349608421326
sg21
F346.0
sg22
F188.0
sg23
I-1
sg24
I-1
sg25
I158
sg26
F0.9944553971290588
sg13
I52
sg27
I267
sg28
I97
sg29
g30
sg31
g30
sg32
F123.0
sg33
g30
sg34
F71.0
sbag1
(g16
g3
Ntp1694
Rp1695
(dp1696
g20
F0.9948410391807556
sg21
F345.5
sg22
F176.5
sg23
I-1
sg24
I-1
sg25
I169
sg26
F0.9899064898490906
sg13
I70
sg27
I261
sg28
I189
sg29
g30
sg31
g30
sg32
F224.0
sg33
g30
sg34
F154.0
sbag1
(g16
g3
Ntp1697
Rp1698
(dp1699
g20
F0.9966217279434204
sg21
F352.0
sg22
F170.0
sg23
I-1
sg24
I-1
sg25
I182
sg26
F0.9755747318267822
sg13
I81
sg27
I261
sg28
I350
sg29
g30
sg31
g30
sg32
F390.5
sg33
g30
sg34
F309.5
sbag1
(g16
g3
Ntp1700
Rp1701
(dp1702
g20
F0.9962154030799866
sg21
F372.0
sg22
F154.0
sg23
I-1
sg24
I-1
sg25
I218
sg26
F0.9962154030799866
sg13
I80
sg27
I263
sg28
I439
sg29
g30
sg31
g30
sg32
F479.0
sg33
g30
sg34
F399.0
sbag1
(g16
g3
Ntp1703
Rp1704
(dp1705
g20
F0.9969775676727295
sg21
F361.0
sg22
F135.0
sg23
I-1
sg24
I-1
sg25
I226
sg26
F0.954681396484375
sg13
I81
sg27
I248
sg28
I486
sg29
g30
sg31
g30
sg32
F526.5
sg33
g30
sg34
F445.5
sbag1
(g16
g3
Ntp1706
Rp1707
(dp1708
g20
F0.9986405968666077
sg21
F362.5
sg22
F169.5
sg23
I-1
sg24
I-1
sg25
I193
sg26
F0.9979590177536011
sg13
I70
sg27
I266
sg28
I592
sg29
g30
sg31
g30
sg32
F627.0
sg33
g30
sg34
F557.0
sbag1
(g16
g3
Ntp1709
Rp1710
(dp1711
g20
F0.9938780665397644
sg21
F338.0
sg22
F190.0
sg23
I-1
sg24
I-1
sg25
I148
sg26
F0.9927969574928284
sg13
I52
sg27
I264
sg28
I218
sg29
g30
sg31
g30
sg32
F244.0
sg33
g30
sg34
F192.0
sbag1
(g16
g3
Ntp1712
Rp1713
(dp1714
g20
F0.992599606513977
sg21
F357.5
sg22
F170.5
sg23
I-1
sg24
I-1
sg25
I187
sg26
F0.9922195672988892
sg13
I71
sg27
I264
sg28
I403
sg29
g30
sg31
g30
sg32
F438.5
sg33
g30
sg34
F367.5
sbag1
(g16
g3
Ntp1715
Rp1716
(dp1717
g20
F0.7168757915496826
sg21
F337.5
sg22
F188.5
sg23
I-1
sg24
I-1
sg25
I149
sg26
F0.7168757915496826
sg13
I61
sg27
I263
sg28
I368
sg29
g30
sg31
g30
sg32
F398.5
sg33
g30
sg34
F337.5
sbasg50
g9
sg25
I-1
sg51
g9
sbag1
(g2
g3
Ntp1718
Rp1719
(dp1720
g7
I-1
sg8
g9
sg10
I57
sg11
S'TUD-Crossing/frames_tensorbox/000058.jpg'
p1721
sg13
I-1
sg14
(lp1722
g1
(g16
g3
Ntp1723
Rp1724
(dp1725
g20
F0.9837700128555298
sg21
F351.5
sg22
F168.5
sg23
I-1
sg24
I-1
sg25
I183
sg26
F0.9837700128555298
sg13
I59
sg27
I260
sg28
I368
sg29
g30
sg31
g30
sg32
F397.5
sg33
g30
sg34
F338.5
sbag1
(g16
g3
Ntp1726
Rp1727
(dp1728
g20
F0.9982612729072571
sg21
F346.5
sg22
F189.5
sg23
I-1
sg24
I-1
sg25
I157
sg26
F0.9965014457702637
sg13
I57
sg27
I268
sg28
I103
sg29
g30
sg31
g30
sg32
F131.5
sg33
g30
sg34
F74.5
sbag1
(g16
g3
Ntp1729
Rp1730
(dp1731
g20
F0.9979788661003113
sg21
F345.5
sg22
F170.5
sg23
I-1
sg24
I-1
sg25
I175
sg26
F0.9792854189872742
sg13
I73
sg27
I258
sg28
I189
sg29
g30
sg31
g30
sg32
F225.5
sg33
g30
sg34
F152.5
sbag1
(g16
g3
Ntp1732
Rp1733
(dp1734
g20
F0.9463288187980652
sg21
F345.5
sg22
F174.5
sg23
I-1
sg24
I-1
sg25
I171
sg26
F0.9463288187980652
sg13
I55
sg27
I260
sg28
I420
sg29
g30
sg31
g30
sg32
F447.5
sg33
g30
sg34
F392.5
sbag1
(g16
g3
Ntp1735
Rp1736
(dp1737
g20
F0.9982683658599854
sg21
F365.0
sg22
F165.0
sg23
I-1
sg24
I-1
sg25
I200
sg26
F0.9976365566253662
sg13
I69
sg27
I265
sg28
I594
sg29
g30
sg31
g30
sg32
F628.5
sg33
g30
sg34
F559.5
sbag1
(g16
g3
Ntp1738
Rp1739
(dp1740
g20
F0.9957017302513123
sg21
F340.0
sg22
F186.0
sg23
I-1
sg24
I-1
sg25
I154
sg26
F0.991154134273529
sg13
I65
sg27
I263
sg28
I219
sg29
g30
sg31
g30
sg32
F251.5
sg33
g30
sg34
F186.5
sbag1
(g16
g3
Ntp1741
Rp1742
(dp1743
g20
F0.9984374642372131
sg21
F366.0
sg22
F146.0
sg23
I-1
sg24
I-1
sg25
I220
sg26
F0.9971494078636169
sg13
I71
sg27
I256
sg28
I429
sg29
g30
sg31
g30
sg32
F464.5
sg33
g30
sg34
F393.5
sbag1
(g16
g3
Ntp1744
Rp1745
(dp1746
g20
F0.9923730492591858
sg21
F332.0
sg22
F168.0
sg23
I-1
sg24
I-1
sg25
I164
sg26
F0.9896649718284607
sg13
I51
sg27
I250
sg28
I509
sg29
g30
sg31
g30
sg32
F534.5
sg33
g30
sg34
F483.5
sbag1
(g16
g3
Ntp1747
Rp1748
(dp1749
g20
F0.38936176896095276
sg21
F333.5
sg22
F186.5
sg23
I-1
sg24
I-1
sg25
I147
sg26
F0.38936176896095276
sg13
I58
sg27
I260
sg28
I384
sg29
g30
sg31
g30
sg32
F413.0
sg33
g30
sg34
F355.0
sbasg50
g9
sg25
I-1
sg51
g9
sbag1
(g2
g3
Ntp1750
Rp1751
(dp1752
g7
I-1
sg8
g9
sg10
I58
sg11
S'TUD-Crossing/frames_tensorbox/000059.jpg'
p1753
sg13
I-1
sg14
(lp1754
g1
(g16
g3
Ntp1755
Rp1756
(dp1757
g20
F0.9907726049423218
sg21
F342.0
sg22
F154.0
sg23
I-1
sg24
I-1
sg25
I188
sg26
F0.9907726049423218
sg13
I60
sg27
I248
sg28
I510
sg29
g30
sg31
g30
sg32
F540.0
sg33
g30
sg34
F480.0
sbag1
(g16
g3
Ntp1758
Rp1759
(dp1760
g20
F0.9974486231803894
sg21
F347.0
sg22
F191.0
sg23
I-1
sg24
I-1
sg25
I156
sg26
F0.9942162036895752
sg13
I56
sg27
I269
sg28
I105
sg29
g30
sg31
g30
sg32
F133.0
sg33
g30
sg34
F77.0
sbag1
(g16
g3
Ntp1761
Rp1762
(dp1763
g20
F0.9971653819084167
sg21
F343.5
sg22
F170.5
sg23
I-1
sg24
I-1
sg25
I173
sg26
F0.991634726524353
sg13
I76
sg27
I257
sg28
I194
sg29
g30
sg31
g30
sg32
F232.0
sg33
g30
sg34
F156.0
sbag1
(g16
g3
Ntp1764
Rp1765
(dp1766
g20
F0.8009746074676514
sg21
F313.5
sg22
F188.5
sg23
I-1
sg24
I-1
sg25
I125
sg26
F0.8009746074676514
sg13
I44
sg27
I251
sg28
I248
sg29
g30
sg31
g30
sg32
F270.0
sg33
g30
sg34
F226.0
sbag1
(g16
g3
Ntp1767
Rp1768
(dp1769
g20
F0.9977715015411377
sg21
F363.0
sg22
F171.0
sg23
I-1
sg24
I-1
sg25
I192
sg26
F0.9941970109939575
sg13
I69
sg27
I267
sg28
I354
sg29
g30
sg31
g30
sg32
F388.5
sg33
g30
sg34
F319.5
sbag1
(g16
g3
Ntp1770
Rp1771
(dp1772
g20
F0.9989748001098633
sg21
F360.0
sg22
F168.0
sg23
I-1
sg24
I-1
sg25
I192
sg26
F0.9979745745658875
sg13
I70
sg27
I264
sg28
I600
sg29
g30
sg31
g30
sg32
F635.0
sg33
g30
sg34
F565.0
sbag1
(g16
g3
Ntp1773
Rp1774
(dp1775
g20
F0.9945182204246521
sg21
F344.0
sg22
F180.0
sg23
I-1
sg24
I-1
sg25
I164
sg26
F0.992706835269928
sg13
I68
sg27
I262
sg28
I223
sg29
g30
sg31
g30
sg32
F257.0
sg33
g30
sg34
F189.0
sbag1
(g16
g3
Ntp1776
Rp1777
(dp1778
g20
F0.9986573457717896
sg21
F366.0
sg22
F150.0
sg23
I-1
sg24
I-1
sg25
I216
sg26
F0.998645007610321
sg13
I74
sg27
I258
sg28
I423
sg29
g30
sg31
g30
sg32
F460.0
sg33
g30
sg34
F386.0
sbasg50
g9
sg25
I-1
sg51
g9
sbag1
(g2
g3
Ntp1779
Rp1780
(dp1781
g7
I-1
sg8
g9
sg10
I59
sg11
S'TUD-Crossing/frames_tensorbox/000060.jpg'
p1782
sg13
I-1
sg14
(lp1783
g1
(g16
g3
Ntp1784
Rp1785
(dp1786
g20
F0.996727466583252
sg21
F329.5
sg22
F160.5
sg23
I-1
sg24
I-1
sg25
I169
sg26
F0.9928845763206482
sg13
I52
sg27
I245
sg28
I519
sg29
g30
sg31
g30
sg32
F545.0
sg33
g30
sg34
F493.0
sbag1
(g16
g3
Ntp1787
Rp1788
(dp1789
g20
F0.9974477291107178
sg21
F346.5
sg22
F189.5
sg23
I-1
sg24
I-1
sg25
I157
sg26
F0.9901084899902344
sg13
I51
sg27
I268
sg28
I110
sg29
g30
sg31
g30
sg32
F135.5
sg33
g30
sg34
F84.5
sbag1
(g16
g3
Ntp1790
Rp1791
(dp1792
g20
F0.9954885840415955
sg21
F363.0
sg22
F163.0
sg23
I-1
sg24
I-1
sg25
I200
sg26
F0.9887373447418213
sg13
I66
sg27
I263
sg28
I360
sg29
g30
sg31
g30
sg32
F393.0
sg33
g30
sg34
F327.0
sbag1
(g16
g3
Ntp1793
Rp1794
(dp1795
g20
F0.9991033673286438
sg21
F356.5
sg22
F169.5
sg23
I-1
sg24
I-1
sg25
I187
sg26
F0.9968670010566711
sg13
I73
sg27
I263
sg28
I606
sg29
g30
sg31
g30
sg32
F642.5
sg33
g30
sg34
F569.5
sbag1
(g16
g3
Ntp1796
Rp1797
(dp1798
g20
F0.9956846237182617
sg21
F353.0
sg22
F171.0
sg23
I-1
sg24
I-1
sg25
I182
sg26
F0.9951539039611816
sg13
I74
sg27
I262
sg28
I202
sg29
g30
sg31
g30
sg32
F239.0
sg33
g30
sg34
F165.0
sbag1
(g16
g3
Ntp1799
Rp1800
(dp1801
g20
F0.9960571527481079
sg21
F348.0
sg22
F180.0
sg23
I-1
sg24
I-1
sg25
I168
sg26
F0.9955754280090332
sg13
I71
sg27
I264
sg28
I226
sg29
g30
sg31
g30
sg32
F261.5
sg33
g30
sg34
F190.5
sbag1
(g16
g3
Ntp1802
Rp1803
(dp1804
g20
F0.9985802173614502
sg21
F363.0
sg22
F145.0
sg23
I-1
sg24
I-1
sg25
I218
sg26
F0.9983579516410828
sg13
I80
sg27
I254
sg28
I428
sg29
g30
sg31
g30
sg32
F468.0
sg33
g30
sg34
F388.0
sbasg50
g9
sg25
I-1
sg51
g9
sba.