(lp0
ccopy_reg
_reconstructor
p1
(cframe
Frame_Info
p2
c__builtin__
object
p3
Ntp4
Rp5
(dp6
S'num_obj'
p7
I-1
sS'default_path'
p8
S'Not Set'
p9
sS'frame'
p10
I0
sS'filename'
p11
S'TUD-Crossing/frames_tensorbox/000001.jpg'
p12
sS'width'
p13
I-1
sS'rects'
p14
(lp15
g1
(cmulticlass_rectangle
Rectangle_Multiclass
p16
g3
Ntp17
Rp18
(dp19
S'confidence'
p20
F0.9999688863754272
sS'y2'
p21
F345.0
sS'y1'
p22
F181.0
sS'trackID'
p23
I-1
sS'label_confidence'
p24
I-1
sS'height'
p25
I164
sS'true_confidence'
p26
F0.9999688863754272
sg13
I53
sS'cy'
p27
I263
sS'cx'
p28
I156
sS'label_code'
p29
S'Not Set'
p30
sS'label'
p31
g30
sS'x2'
p32
F182.5
sS'label_chall'
p33
g30
sS'x1'
p34
F129.5
sbag1
(g16
g3
Ntp35
Rp36
(dp37
g20
F0.9988848567008972
sg21
F355.0
sg22
F179.0
sg23
I-1
sg24
I-1
sg25
I176
sg26
F0.9988848567008972
sg13
I56
sg27
I267
sg28
I192
sg29
g30
sg31
g30
sg32
F220.0
sg33
g30
sg34
F164.0
sbag1
(g16
g3
Ntp38
Rp39
(dp40
g20
F0.9999998807907104
sg21
F342.0
sg22
F94.0
sg23
I-1
sg24
I-1
sg25
I248
sg26
F0.9999985694885254
sg13
I84
sg27
I218
sg28
I458
sg29
g30
sg31
g30
sg32
F500.0
sg33
g30
sg34
F416.0
sbag1
(g16
g3
Ntp41
Rp42
(dp43
g20
F0.9999943971633911
sg21
F351.0
sg22
F193.0
sg23
I-1
sg24
I-1
sg25
I158
sg26
F0.9999939203262329
sg13
I53
sg27
I272
sg28
I82
sg29
g30
sg31
g30
sg32
F108.5
sg33
g30
sg34
F55.5
sbag1
(g16
g3
Ntp44
Rp45
(dp46
g20
F0.9999412298202515
sg21
F333.5
sg22
F176.5
sg23
I-1
sg24
I-1
sg25
I157
sg26
F0.9988571405410767
sg13
I52
sg27
I255
sg28
I246
sg29
g30
sg31
g30
sg32
F272.0
sg33
g30
sg34
F220.0
sbag1
(g16
g3
Ntp47
Rp48
(dp49
g20
F0.983269214630127
sg21
F374.0
sg22
F168.0
sg23
I-1
sg24
I-1
sg25
I206
sg26
F0.9555255174636841
sg13
I64
sg27
I271
sg28
I266
sg29
g30
sg31
g30
sg32
F298.0
sg33
g30
sg34
F234.0
sbag1
(g16
g3
Ntp50
Rp51
(dp52
g20
F0.9989000558853149
sg21
F339.5
sg22
F190.5
sg23
I-1
sg24
I-1
sg25
I149
sg26
F0.9985619187355042
sg13
I51
sg27
I265
sg28
I130
sg29
g30
sg31
g30
sg32
F155.5
sg33
g30
sg34
F104.5
sbag1
(g16
g3
Ntp53
Rp54
(dp55
g20
F0.6454532742500305
sg21
F303.5
sg22
F132.5
sg23
I-1
sg24
I-1
sg25
I171
sg26
F0.6454532742500305
sg13
I41
sg27
I218
sg28
I626
sg29
g30
sg31
g30
sg32
F646.5
sg33
g30
sg34
F605.5
sbasS'folder'
p56
g9
sg25
I-1
sS'dataset_path'
p57
g9
sbag1
(g2
g3
Ntp58
Rp59
(dp60
g7
I-1
sg8
g9
sg10
I1
sg11
S'TUD-Crossing/frames_tensorbox/000002.jpg'
p61
sg13
I-1
sg14
(lp62
g1
(g16
g3
Ntp63
Rp64
(dp65
g20
F0.9027640223503113
sg21
F319.5
sg22
F182.5
sg23
I-1
sg24
I-1
sg25
I137
sg26
F0.9027640223503113
sg13
I46
sg27
I251
sg28
I290
sg29
g30
sg31
g30
sg32
F313.0
sg33
g30
sg34
F267.0
sbag1
(g16
g3
Ntp66
Rp67
(dp68
g20
F1.0
sg21
F335.0
sg22
F87.0
sg23
I-1
sg24
I-1
sg25
I248
sg26
F0.9999992847442627
sg13
I86
sg27
I211
sg28
I467
sg29
g30
sg31
g30
sg32
F510.0
sg33
g30
sg34
F424.0
sbag1
(g16
g3
Ntp69
Rp70
(dp71
g20
F0.999998927116394
sg21
F365.5
sg22
F178.5
sg23
I-1
sg24
I-1
sg25
I187
sg26
F0.9658157229423523
sg13
I63
sg27
I272
sg28
I85
sg29
g30
sg31
g30
sg32
F116.5
sg33
g30
sg34
F53.5
sbag1
(g16
g3
Ntp72
Rp73
(dp74
g20
F0.940337598323822
sg21
F351.5
sg22
F192.5
sg23
I-1
sg24
I-1
sg25
I159
sg26
F0.940337598323822
sg13
I53
sg27
I272
sg28
I106
sg29
g30
sg31
g30
sg32
F132.5
sg33
g30
sg34
F79.5
sbag1
(g16
g3
Ntp75
Rp76
(dp77
g20
F0.9999834299087524
sg21
F340.0
sg22
F182.0
sg23
I-1
sg24
I-1
sg25
I158
sg26
F0.999981164932251
sg13
I52
sg27
I261
sg28
I161
sg29
g30
sg31
g30
sg32
F187.0
sg33
g30
sg34
F135.0
sbag1
(g16
g3
Ntp78
Rp79
(dp80
g20
F0.9963791966438293
sg21
F338.5
sg22
F181.5
sg23
I-1
sg24
I-1
sg25
I157
sg26
F0.9962117671966553
sg13
I55
sg27
I260
sg28
I242
sg29
g30
sg31
g30
sg32
F269.5
sg33
g30
sg34
F214.5
sbasg56
g9
sg25
I-1
sg57
g9
sbag1
(g2
g3
Ntp81
Rp82
(dp83
g7
I-1
sg8
g9
sg10
I2
sg11
S'TUD-Crossing/frames_tensorbox/000003.jpg'
p84
sg13
I-1
sg14
(lp85
g1
(g16
g3
Ntp86
Rp87
(dp88
g20
F0.9266400337219238
sg21
F260.0
sg22
F68.0
sg23
I-1
sg24
I-1
sg25
I192
sg26
F0.9266400337219238
sg13
I49
sg27
I164
sg28
I615
sg29
g30
sg31
g30
sg32
F639.5
sg33
g30
sg34
F590.5
sbag1
(g16
g3
Ntp89
Rp90
(dp91
g20
F0.9916996955871582
sg21
F339.0
sg22
F181.0
sg23
I-1
sg24
I-1
sg25
I158
sg26
F0.9916996955871582
sg13
I48
sg27
I260
sg28
I103
sg29
g30
sg31
g30
sg32
F127.0
sg33
g30
sg34
F79.0
sbag1
(g16
g3
Ntp92
Rp93
(dp94
g20
F0.996216356754303
sg21
F326.0
sg22
F180.0
sg23
I-1
sg24
I-1
sg25
I146
sg26
F0.996216356754303
sg13
I48
sg27
I253
sg28
I287
sg29
g30
sg31
g30
sg32
F311.0
sg33
g30
sg34
F263.0
sbag1
(g16
g3
Ntp95
Rp96
(dp97
g20
F0.9999877214431763
sg21
F344.0
sg22
F188.0
sg23
I-1
sg24
I-1
sg25
I156
sg26
F0.9999147653579712
sg13
I52
sg27
I266
sg28
I164
sg29
g30
sg31
g30
sg32
F190.0
sg33
g30
sg34
F138.0
sbag1
(g16
g3
Ntp98
Rp99
(dp100
g20
F0.999993085861206
sg21
F342.0
sg22
F176.0
sg23
I-1
sg24
I-1
sg25
I166
sg26
F0.9922469854354858
sg13
I60
sg27
I259
sg28
I256
sg29
g30
sg31
g30
sg32
F286.0
sg33
g30
sg34
F226.0
sbag1
(g16
g3
Ntp101
Rp102
(dp103
g20
F0.9999997615814209
sg21
F332.5
sg22
F115.5
sg23
I-1
sg24
I-1
sg25
I217
sg26
F0.9999963045120239
sg13
I79
sg27
I224
sg28
I472
sg29
g30
sg31
g30
sg32
F511.5
sg33
g30
sg34
F432.5
sbag1
(g16
g3
Ntp104
Rp105
(dp106
g20
F0.999640941619873
sg21
F359.0
sg22
F189.0
sg23
I-1
sg24
I-1
sg25
I170
sg26
F0.999640941619873
sg13
I51
sg27
I274
sg28
I67
sg29
g30
sg31
g30
sg32
F92.5
sg33
g30
sg34
F41.5
sbag1
(g16
g3
Ntp107
Rp108
(dp109
g20
F0.9995965361595154
sg21
F345.0
sg22
F179.0
sg23
I-1
sg24
I-1
sg25
I166
sg26
F0.9983432292938232
sg13
I62
sg27
I262
sg28
I196
sg29
g30
sg31
g30
sg32
F227.0
sg33
g30
sg34
F165.0
sbag1
(g16
g3
Ntp110
Rp111
(dp112
g20
F0.7201370000839233
sg21
F343.5
sg22
F182.5
sg23
I-1
sg24
I-1
sg25
I161
sg26
F0.7201370000839233
sg13
I43
sg27
I263
sg28
I15
sg29
g30
sg31
g30
sg32
F36.5
sg33
g30
sg34
F-6.5
sbasg56
g9
sg25
I-1
sg57
g9
sbag1
(g2
g3
Ntp113
Rp114
(dp115
g7
I-1
sg8
g9
sg10
I3
sg11
S'TUD-Crossing/frames_tensorbox/000004.jpg'
p116
sg13
I-1
sg14
(lp117
g1
(g16
g3
Ntp118
Rp119
(dp120
g20
F0.9999651908874512
sg21
F295.5
sg22
F62.5
sg23
I-1
sg24
I-1
sg25
I233
sg26
F0.9952034950256348
sg13
I74
sg27
I179
sg28
I466
sg29
g30
sg31
g30
sg32
F503.0
sg33
g30
sg34
F429.0
sbag1
(g16
g3
Ntp121
Rp122
(dp123
g20
F0.9881844520568848
sg21
F339.0
sg22
F177.0
sg23
I-1
sg24
I-1
sg25
I162
sg26
F0.9881844520568848
sg13
I53
sg27
I258
sg28
I289
sg29
g30
sg31
g30
sg32
F315.5
sg33
g30
sg34
F262.5
sbag1
(g16
g3
Ntp124
Rp125
(dp126
g20
F0.9999737739562988
sg21
F338.5
sg22
F187.5
sg23
I-1
sg24
I-1
sg25
I151
sg26
F0.9998944997787476
sg13
I49
sg27
I263
sg28
I189
sg29
g30
sg31
g30
sg32
F213.5
sg33
g30
sg34
F164.5
sbag1
(g16
g3
Ntp127
Rp128
(dp129
g20
F0.9993798732757568
sg21
F355.0
sg22
F183.0
sg23
I-1
sg24
I-1
sg25
I172
sg26
F0.9993618130683899
sg13
I45
sg27
I269
sg28
I13
sg29
g30
sg31
g30
sg32
F35.5
sg33
g30
sg34
F-9.5
sbag1
(g16
g3
Ntp130
Rp131
(dp132
g20
F0.999990701675415
sg21
F348.5
sg22
F195.5
sg23
I-1
sg24
I-1
sg25
I153
sg26
F0.9999889135360718
sg13
I53
sg27
I272
sg28
I98
sg29
g30
sg31
g30
sg32
F124.5
sg33
g30
sg34
F71.5
sbag1
(g16
g3
Ntp133
Rp134
(dp135
g20
F0.991796612739563
sg21
F339.0
sg22
F181.0
sg23
I-1
sg24
I-1
sg25
I158
sg26
F0.991796612739563
sg13
I51
sg27
I260
sg28
I233
sg29
g30
sg31
g30
sg32
F258.5
sg33
g30
sg34
F207.5
sbag1
(g16
g3
Ntp136
Rp137
(dp138
g20
F0.9999943971633911
sg21
F336.5
sg22
F177.5
sg23
I-1
sg24
I-1
sg25
I159
sg26
F0.9999939203262329
sg13
I59
sg27
I257
sg28
I264
sg29
g30
sg31
g30
sg32
F293.5
sg33
g30
sg34
F234.5
sbag1
(g16
g3
Ntp139
Rp140
(dp141
g20
F0.998538613319397
sg21
F347.5
sg22
F200.5
sg23
I-1
sg24
I-1
sg25
I147
sg26
F0.9976025223731995
sg13
I50
sg27
I274
sg28
I129
sg29
g30
sg31
g30
sg32
F154.0
sg33
g30
sg34
F104.0
sbag1
(g16
g3
Ntp142
Rp143
(dp144
g20
F0.6742807030677795
sg21
F236.5
sg22
F31.5
sg23
I-1
sg24
I-1
sg25
I205
sg26
F0.6742807030677795
sg13
I58
sg27
I134
sg28
I28
sg29
g30
sg31
g30
sg32
F57.0
sg33
g30
sg34
F-1.0
sbasg56
g9
sg25
I-1
sg57
g9
sbag1
(g2
g3
Ntp145
Rp146
(dp147
g7
I-1
sg8
g9
sg10
I4
sg11
S'TUD-Crossing/frames_tensorbox/000005.jpg'
p148
sg13
I-1
sg14
(lp149
g1
(g16
g3
Ntp150
Rp151
(dp152
g20
F0.9938783049583435
sg21
F299.5
sg22
F72.5
sg23
I-1
sg24
I-1
sg25
I227
sg26
F0.9938783049583435
sg13
I73
sg27
I186
sg28
I475
sg29
g30
sg31
g30
sg32
F511.5
sg33
g30
sg34
F438.5
sbag1
(g16
g3
Ntp153
Rp154
(dp155
g20
F0.9999957084655762
sg21
F348.5
sg22
F173.5
sg23
I-1
sg24
I-1
sg25
I175
sg26
F0.9999837875366211
sg13
I61
sg27
I261
sg28
I263
sg29
g30
sg31
g30
sg32
F293.5
sg33
g30
sg34
F232.5
sbag1
(g16
g3
Ntp156
Rp157
(dp158
g20
F0.9999788999557495
sg21
F332.0
sg22
F182.0
sg23
I-1
sg24
I-1
sg25
I150
sg26
F0.9999781847000122
sg13
I46
sg27
I257
sg28
I198
sg29
g30
sg31
g30
sg32
F221.0
sg33
g30
sg34
F175.0
sbag1
(g16
g3
Ntp159
Rp160
(dp161
g20
F0.9994920492172241
sg21
F333.5
sg22
F186.5
sg23
I-1
sg24
I-1
sg25
I147
sg26
F0.9976688027381897
sg13
I48
sg27
I260
sg28
I227
sg29
g30
sg31
g30
sg32
F251.0
sg33
g30
sg34
F203.0
sbag1
(g16
g3
Ntp162
Rp163
(dp164
g20
F0.9996322393417358
sg21
F355.0
sg22
F183.0
sg23
I-1
sg24
I-1
sg25
I172
sg26
F0.9996299743652344
sg13
I46
sg27
I269
sg28
I15
sg29
g30
sg31
g30
sg32
F38.0
sg33
g30
sg34
F-8.0
sbag1
(g16
g3
Ntp165
Rp166
(dp167
g20
F0.9999942779541016
sg21
F354.0
sg22
F194.0
sg23
I-1
sg24
I-1
sg25
I160
sg26
F0.9999922513961792
sg13
I56
sg27
I274
sg28
I100
sg29
g30
sg31
g30
sg32
F128.0
sg33
g30
sg34
F72.0
sbag1
(g16
g3
Ntp168
Rp169
(dp170
g20
F0.9988380074501038
sg21
F348.5
sg22
F199.5
sg23
I-1
sg24
I-1
sg25
I149
sg26
F0.9970495700836182
sg13
I50
sg27
I274
sg28
I127
sg29
g30
sg31
g30
sg32
F152.0
sg33
g30
sg34
F102.0
sbag1
(g16
g3
Ntp171
Rp172
(dp173
g20
F0.999992847442627
sg21
F365.5
sg22
F156.5
sg23
I-1
sg24
I-1
sg25
I209
sg26
F0.9998260140419006
sg13
I77
sg27
I261
sg28
I272
sg29
g30
sg31
g30
sg32
F310.5
sg33
g30
sg34
F233.5
sbag1
(g16
g3
Ntp174
Rp175
(dp176
g20
F0.8022064566612244
sg21
F336.0
sg22
F170.0
sg23
I-1
sg24
I-1
sg25
I166
sg26
F0.7268229126930237
sg13
I52
sg27
I253
sg28
I307
sg29
g30
sg31
g30
sg32
F333.0
sg33
g30
sg34
F281.0
sbasg56
g9
sg25
I-1
sg57
g9
sbag1
(g2
g3
Ntp177
Rp178
(dp179
g7
I-1
sg8
g9
sg10
I5
sg11
S'TUD-Crossing/frames_tensorbox/000006.jpg'
p180
sg13
I-1
sg14
(lp181
g1
(g16
g3
Ntp182
Rp183
(dp184
g20
F0.9772369861602783
sg21
F340.5
sg22
F181.5
sg23
I-1
sg24
I-1
sg25
I159
sg26
F0.9772369861602783
sg13
I48
sg27
I261
sg28
I121
sg29
g30
sg31
g30
sg32
F145.0
sg33
g30
sg34
F97.0
sbag1
(g16
g3
Ntp185
Rp186
(dp187
g20
F0.9999752044677734
sg21
F333.5
sg22
F178.5
sg23
I-1
sg24
I-1
sg25
I155
sg26
F0.9976552724838257
sg13
I52
sg27
I256
sg28
I282
sg29
g30
sg31
g30
sg32
F308.0
sg33
g30
sg34
F256.0
sbag1
(g16
g3
Ntp188
Rp189
(dp190
g20
F0.9999984502792358
sg21
F336.0
sg22
F150.0
sg23
I-1
sg24
I-1
sg25
I186
sg26
F0.9999971389770508
sg13
I69
sg27
I243
sg28
I484
sg29
g30
sg31
g30
sg32
F518.5
sg33
g30
sg34
F449.5
sbag1
(g16
g3
Ntp191
Rp192
(dp193
g20
F0.9999874830245972
sg21
F339.0
sg22
F177.0
sg23
I-1
sg24
I-1
sg25
I162
sg26
F0.9999831914901733
sg13
I50
sg27
I258
sg28
I198
sg29
g30
sg31
g30
sg32
F223.0
sg33
g30
sg34
F173.0
sbag1
(g16
g3
Ntp194
Rp195
(dp196
g20
F0.9877738356590271
sg21
F341.0
sg22
F185.0
sg23
I-1
sg24
I-1
sg25
I156
sg26
F0.81875079870224
sg13
I50
sg27
I263
sg28
I245
sg29
g30
sg31
g30
sg32
F270.0
sg33
g30
sg34
F220.0
sbag1
(g16
g3
Ntp197
Rp198
(dp199
g20
F0.9998633861541748
sg21
F367.0
sg22
F155.0
sg23
I-1
sg24
I-1
sg25
I212
sg26
F0.9998241066932678
sg13
I70
sg27
I261
sg28
I296
sg29
g30
sg31
g30
sg32
F331.0
sg33
g30
sg34
F261.0
sbag1
(g16
g3
Ntp200
Rp201
(dp202
g20
F0.9996767044067383
sg21
F355.5
sg22
F186.5
sg23
I-1
sg24
I-1
sg25
I169
sg26
F0.9996672868728638
sg13
I45
sg27
I271
sg28
I15
sg29
g30
sg31
g30
sg32
F37.5
sg33
g30
sg34
F-7.5
sbag1
(g16
g3
Ntp203
Rp204
(dp205
g20
F0.9424274563789368
sg21
F354.0
sg22
F202.0
sg23
I-1
sg24
I-1
sg25
I152
sg26
F0.9424274563789368
sg13
I51
sg27
I278
sg28
I135
sg29
g30
sg31
g30
sg32
F160.5
sg33
g30
sg34
F109.5
sbasg56
g9
sg25
I-1
sg57
g9
sbag1
(g2
g3
Ntp206
Rp207
(dp208
g7
I-1
sg8
g9
sg10
I6
sg11
S'TUD-Crossing/frames_tensorbox/000007.jpg'
p209
sg13
I-1
sg14
(lp210
g1
(g16
g3
Ntp211
Rp212
(dp213
g20
F0.9999005794525146
sg21
F343.0
sg22
F177.0
sg23
I-1
sg24
I-1
sg25
I166
sg26
F0.9999005794525146
sg13
I51
sg27
I260
sg28
I183
sg29
g30
sg31
g30
sg32
F208.5
sg33
g30
sg34
F157.5
sbag1
(g16
g3
Ntp214
Rp215
(dp216
g20
F0.9999786615371704
sg21
F326.0
sg22
F180.0
sg23
I-1
sg24
I-1
sg25
I146
sg26
F0.9999786615371704
sg13
I50
sg27
I253
sg28
I290
sg29
g30
sg31
g30
sg32
F315.0
sg33
g30
sg34
F265.0
sbag1
(g16
g3
Ntp217
Rp218
(dp219
g20
F0.8381156325340271
sg21
F347.0
sg22
F173.0
sg23
I-1
sg24
I-1
sg25
I174
sg26
F0.8381156325340271
sg13
I55
sg27
I260
sg28
I304
sg29
g30
sg31
g30
sg32
F331.5
sg33
g30
sg34
F276.5
sbag1
(g16
g3
Ntp220
Rp221
(dp222
g20
F0.9999997615814209
sg21
F339.5
sg22
F110.5
sg23
I-1
sg24
I-1
sg25
I229
sg26
F0.9999997615814209
sg13
I82
sg27
I225
sg28
I489
sg29
g30
sg31
g30
sg32
F530.0
sg33
g30
sg34
F448.0
sbag1
(g16
g3
Ntp223
Rp224
(dp225
g20
F0.9997910857200623
sg21
F353.5
sg22
F186.5
sg23
I-1
sg24
I-1
sg25
I167
sg26
F0.9997623562812805
sg13
I46
sg27
I270
sg28
I17
sg29
g30
sg31
g30
sg32
F40.0
sg33
g30
sg34
F-6.0
sbag1
(g16
g3
Ntp226
Rp227
(dp228
g20
F0.9999971389770508
sg21
F354.0
sg22
F192.0
sg23
I-1
sg24
I-1
sg25
I162
sg26
F0.9999963045120239
sg13
I58
sg27
I273
sg28
I117
sg29
g30
sg31
g30
sg32
F146.0
sg33
g30
sg34
F88.0
sbag1
(g16
g3
Ntp229
Rp230
(dp231
g20
F0.9925656318664551
sg21
F358.0
sg22
F196.0
sg23
I-1
sg24
I-1
sg25
I162
sg26
F0.8800154328346252
sg13
I56
sg27
I277
sg28
I140
sg29
g30
sg31
g30
sg32
F168.0
sg33
g30
sg34
F112.0
sbag1
(g16
g3
Ntp232
Rp233
(dp234
g20
F0.9999045133590698
sg21
F335.5
sg22
F186.5
sg23
I-1
sg24
I-1
sg25
I149
sg26
F0.999880313873291
sg13
I49
sg27
I261
sg28
I214
sg29
g30
sg31
g30
sg32
F238.5
sg33
g30
sg34
F189.5
sbasg56
g9
sg25
I-1
sg57
g9
sbag1
(g2
g3
Ntp235
Rp236
(dp237
g7
I-1
sg8
g9
sg10
I7
sg11
S'TUD-Crossing/frames_tensorbox/000008.jpg'
p238
sg13
I-1
sg14
(lp239
g1
(g16
g3
Ntp240
Rp241
(dp242
g20
F0.9588969349861145
sg21
F335.5
sg22
F180.5
sg23
I-1
sg24
I-1
sg25
I155
sg26
F0.9588969349861145
sg13
I46
sg27
I258
sg28
I176
sg29
g30
sg31
g30
sg32
F199.0
sg33
g30
sg34
F153.0
sbag1
(g16
g3
Ntp243
Rp244
(dp245
g20
F0.9996147155761719
sg21
F350.5
sg22
F169.5
sg23
I-1
sg24
I-1
sg25
I181
sg26
F0.9613167643547058
sg13
I64
sg27
I260
sg28
I307
sg29
g30
sg31
g30
sg32
F339.0
sg33
g30
sg34
F275.0
sbag1
(g16
g3
Ntp246
Rp247
(dp248
g20
F0.9999655485153198
sg21
F363.5
sg22
F156.5
sg23
I-1
sg24
I-1
sg25
I207
sg26
F0.9999290704727173
sg13
I60
sg27
I260
sg28
I17
sg29
g30
sg31
g30
sg32
F47.0
sg33
g30
sg34
F-13.0
sbag1
(g16
g3
Ntp249
Rp250
(dp251
g20
F0.999871015548706
sg21
F331.0
sg22
F181.0
sg23
I-1
sg24
I-1
sg25
I150
sg26
F0.999871015548706
sg13
I50
sg27
I256
sg28
I244
sg29
g30
sg31
g30
sg32
F269.0
sg33
g30
sg34
F219.0
sbag1
(g16
g3
Ntp252
Rp253
(dp254
g20
F0.9999995231628418
sg21
F336.0
sg22
F122.0
sg23
I-1
sg24
I-1
sg25
I214
sg26
F0.9999991655349731
sg13
I74
sg27
I229
sg28
I494
sg29
g30
sg31
g30
sg32
F531.0
sg33
g30
sg34
F457.0
sbag1
(g16
g3
Ntp255
Rp256
(dp257
g20
F0.9999936819076538
sg21
F344.5
sg22
F173.5
sg23
I-1
sg24
I-1
sg25
I171
sg26
F0.9999920129776001
sg13
I61
sg27
I259
sg28
I289
sg29
g30
sg31
g30
sg32
F319.5
sg33
g30
sg34
F258.5
sbag1
(g16
g3
Ntp258
Rp259
(dp260
g20
F0.9999969005584717
sg21
F353.5
sg22
F184.5
sg23
I-1
sg24
I-1
sg25
I169
sg26
F0.9999934434890747
sg13
I60
sg27
I269
sg28
I120
sg29
g30
sg31
g30
sg32
F150.0
sg33
g30
sg34
F90.0
sbag1
(g16
g3
Ntp261
Rp262
(dp263
g20
F0.9998867511749268
sg21
F332.5
sg22
F189.5
sg23
I-1
sg24
I-1
sg25
I143
sg26
F0.9998581409454346
sg13
I45
sg27
I261
sg28
I213
sg29
g30
sg31
g30
sg32
F235.5
sg33
g30
sg34
F190.5
sbag1
(g16
g3
Ntp264
Rp265
(dp266
g20
F0.6037797331809998
sg21
F299.5
sg22
F138.5
sg23
I-1
sg24
I-1
sg25
I161
sg26
F0.6037797331809998
sg13
I41
sg27
I219
sg28
I626
sg29
g30
sg31
g30
sg32
F646.5
sg33
g30
sg34
F605.5
sbasg56
g9
sg25
I-1
sg57
g9
sbag1
(g2
g3
Ntp267
Rp268
(dp269
g7
I-1
sg8
g9
sg10
I8
sg11
S'TUD-Crossing/frames_tensorbox/000009.jpg'
p270
sg13
I-1
sg14
(lp271
g1
(g16
g3
Ntp272
Rp273
(dp274
g20
F0.9407144784927368
sg21
F238.0
sg22
F30.0
sg23
I-1
sg24
I-1
sg25
I208
sg26
F0.9407144784927368
sg13
I59
sg27
I134
sg28
I28
sg29
g30
sg31
g30
sg32
F57.5
sg33
g30
sg34
F-1.5
sbag1
(g16
g3
Ntp275
Rp276
(dp277
g20
F0.9999943971633911
sg21
F370.0
sg22
F136.0
sg23
I-1
sg24
I-1
sg25
I234
sg26
F0.9999943971633911
sg13
I72
sg27
I253
sg28
I20
sg29
g30
sg31
g30
sg32
F56.0
sg33
g30
sg34
F-16.0
sbag1
(g16
g3
Ntp278
Rp279
(dp280
g20
F0.9999542236328125
sg21
F324.5
sg22
F175.5
sg23
I-1
sg24
I-1
sg25
I149
sg26
F0.9999542236328125
sg13
I44
sg27
I250
sg28
I222
sg29
g30
sg31
g30
sg32
F244.0
sg33
g30
sg34
F200.0
sbag1
(g16
g3
Ntp281
Rp282
(dp283
g20
F0.9999996423721313
sg21
F340.5
sg22
F133.5
sg23
I-1
sg24
I-1
sg25
I207
sg26
F0.9999966621398926
sg13
I75
sg27
I237
sg28
I500
sg29
g30
sg31
g30
sg32
F537.5
sg33
g30
sg34
F462.5
sbag1
(g16
g3
Ntp284
Rp285
(dp286
g20
F0.9999961853027344
sg21
F357.5
sg22
F186.5
sg23
I-1
sg24
I-1
sg25
I171
sg26
F0.9999935626983643
sg13
I62
sg27
I272
sg28
I130
sg29
g30
sg31
g30
sg32
F161.0
sg33
g30
sg34
F99.0
sbag1
(g16
g3
Ntp287
Rp288
(dp289
g20
F0.9719308614730835
sg21
F353.5
sg22
F196.5
sg23
I-1
sg24
I-1
sg25
I157
sg26
F0.9719308614730835
sg13
I51
sg27
I275
sg28
I156
sg29
g30
sg31
g30
sg32
F181.5
sg33
g30
sg34
F130.5
sbag1
(g16
g3
Ntp290
Rp291
(dp292
g20
F0.9999990463256836
sg21
F360.0
sg22
F168.0
sg23
I-1
sg24
I-1
sg25
I192
sg26
F0.9999967813491821
sg13
I71
sg27
I264
sg28
I295
sg29
g30
sg31
g30
sg32
F330.5
sg33
g30
sg34
F259.5
sbag1
(g16
g3
Ntp293
Rp294
(dp295
g20
F0.9980788230895996
sg21
F362.0
sg22
F168.0
sg23
I-1
sg24
I-1
sg25
I194
sg26
F0.9934427738189697
sg13
I61
sg27
I265
sg28
I320
sg29
g30
sg31
g30
sg32
F350.5
sg33
g30
sg34
F289.5
sbasg56
g9
sg25
I-1
sg57
g9
sbag1
(g2
g3
Ntp296
Rp297
(dp298
g7
I-1
sg8
g9
sg10
I9
sg11
S'TUD-Crossing/frames_tensorbox/000010.jpg'
p299
sg13
I-1
sg14
(lp300
g1
(g16
g3
Ntp301
Rp302
(dp303
g20
F0.9609314799308777
sg21
F238.5
sg22
F27.5
sg23
I-1
sg24
I-1
sg25
I211
sg26
F0.9609314799308777
sg13
I60
sg27
I133
sg28
I28
sg29
g30
sg31
g30
sg32
F58.0
sg33
g30
sg34
F-2.0
sbag1
(g16
g3
Ntp304
Rp305
(dp306
g20
F0.9999973773956299
sg21
F373.0
sg22
F141.0
sg23
I-1
sg24
I-1
sg25
I232
sg26
F0.9999973773956299
sg13
I76
sg27
I257
sg28
I22
sg29
g30
sg31
g30
sg32
F60.0
sg33
g30
sg34
F-16.0
sbag1
(g16
g3
Ntp307
Rp308
(dp309
g20
F0.9999676942825317
sg21
F322.5
sg22
F175.5
sg23
I-1
sg24
I-1
sg25
I147
sg26
F0.9999676942825317
sg13
I45
sg27
I249
sg28
I226
sg29
g30
sg31
g30
sg32
F248.5
sg33
g30
sg34
F203.5
sbag1
(g16
g3
Ntp310
Rp311
(dp312
g20
F0.9999995231628418
sg21
F339.5
sg22
F136.5
sg23
I-1
sg24
I-1
sg25
I203
sg26
F0.9999927282333374
sg13
I74
sg27
I238
sg28
I511
sg29
g30
sg31
g30
sg32
F548.0
sg33
g30
sg34
F474.0
sbag1
(g16
g3
Ntp313
Rp314
(dp315
g20
F0.9146665334701538
sg21
F298.0
sg22
F136.0
sg23
I-1
sg24
I-1
sg25
I162
sg26
F0.9146665334701538
sg13
I42
sg27
I217
sg28
I624
sg29
g30
sg31
g30
sg32
F645.0
sg33
g30
sg34
F603.0
sbag1
(g16
g3
Ntp316
Rp317
(dp318
g20
F0.9999970197677612
sg21
F354.5
sg22
F181.5
sg23
I-1
sg24
I-1
sg25
I173
sg26
F0.9999945163726807
sg13
I62
sg27
I268
sg28
I134
sg29
g30
sg31
g30
sg32
F165.0
sg33
g30
sg34
F103.0
sbag1
(g16
g3
Ntp319
Rp320
(dp321
g20
F0.9944236874580383
sg21
F350.5
sg22
F189.5
sg23
I-1
sg24
I-1
sg25
I161
sg26
F0.993634819984436
sg13
I53
sg27
I270
sg28
I160
sg29
g30
sg31
g30
sg32
F186.5
sg33
g30
sg34
F133.5
sbag1
(g16
g3
Ntp322
Rp323
(dp324
g20
F0.9999991655349731
sg21
F362.0
sg22
F168.0
sg23
I-1
sg24
I-1
sg25
I194
sg26
F0.9999983310699463
sg13
I67
sg27
I265
sg28
I300
sg29
g30
sg31
g30
sg32
F333.5
sg33
g30
sg34
F266.5
sbag1
(g16
g3
Ntp325
Rp326
(dp327
g20
F0.9438119530677795
sg21
F362.0
sg22
F170.0
sg23
I-1
sg24
I-1
sg25
I192
sg26
F0.8625348806381226
sg13
I61
sg27
I266
sg28
I326
sg29
g30
sg31
g30
sg32
F356.5
sg33
g30
sg34
F295.5
sbasg56
g9
sg25
I-1
sg57
g9
sbag1
(g2
g3
Ntp328
Rp329
(dp330
g7
I-1
sg8
g9
sg10
I10
sg11
S'TUD-Crossing/frames_tensorbox/000011.jpg'
p331
sg13
I-1
sg14
(lp332
g1
(g16
g3
Ntp333
Rp334
(dp335
g20
F0.9987416863441467
sg21
F242.0
sg22
F28.0
sg23
I-1
sg24
I-1
sg25
I214
sg26
F0.9987416863441467
sg13
I62
sg27
I135
sg28
I28
sg29
g30
sg31
g30
sg32
F59.0
sg33
g30
sg34
F-3.0
sbag1
(g16
g3
Ntp336
Rp337
(dp338
g20
F0.9999767541885376
sg21
F323.0
sg22
F173.0
sg23
I-1
sg24
I-1
sg25
I150
sg26
F0.9999767541885376
sg13
I48
sg27
I248
sg28
I229
sg29
g30
sg31
g30
sg32
F253.0
sg33
g30
sg34
F205.0
sbag1
(g16
g3
Ntp339
Rp340
(dp341
g20
F0.9999970197677612
sg21
F368.5
sg22
F139.5
sg23
I-1
sg24
I-1
sg25
I229
sg26
F0.9999958276748657
sg13
I74
sg27
I254
sg28
I23
sg29
g30
sg31
g30
sg32
F60.0
sg33
g30
sg34
F-14.0
sbag1
(g16
g3
Ntp342
Rp343
(dp344
g20
F0.999998927116394
sg21
F335.0
sg22
F131.0
sg23
I-1
sg24
I-1
sg25
I204
sg26
F0.9999977350234985
sg13
I74
sg27
I233
sg28
I514
sg29
g30
sg31
g30
sg32
F551.0
sg33
g30
sg34
F477.0
sbag1
(g16
g3
Ntp345
Rp346
(dp347
g20
F0.9999974966049194
sg21
F353.0
sg22
F179.0
sg23
I-1
sg24
I-1
sg25
I174
sg26
F0.9999948740005493
sg13
I60
sg27
I266
sg28
I143
sg29
g30
sg31
g30
sg32
F173.0
sg33
g30
sg34
F113.0
sbag1
(g16
g3
Ntp348
Rp349
(dp350
g20
F0.9999990463256836
sg21
F358.0
sg22
F170.0
sg23
I-1
sg24
I-1
sg25
I188
sg26
F0.9999969005584717
sg13
I69
sg27
I264
sg28
I297
sg29
g30
sg31
g30
sg32
F331.5
sg33
g30
sg34
F262.5
sbag1
(g16
g3
Ntp351
Rp352
(dp353
g20
F0.9999899864196777
sg21
F362.0
sg22
F160.0
sg23
I-1
sg24
I-1
sg25
I202
sg26
F0.9997953772544861
sg13
I72
sg27
I261
sg28
I305
sg29
g30
sg31
g30
sg32
F341.0
sg33
g30
sg34
F269.0
sbasg56
g9
sg25
I-1
sg57
g9
sbag1
(g2
g3
Ntp354
Rp355
(dp356
g7
I-1
sg8
g9
sg10
I11
sg11
S'TUD-Crossing/frames_tensorbox/000012.jpg'
p357
sg13
I-1
sg14
(lp358
g1
(g16
g3
Ntp359
Rp360
(dp361
g20
F0.9993876218795776
sg21
F243.5
sg22
F26.5
sg23
I-1
sg24
I-1
sg25
I217
sg26
F0.9993876218795776
sg13
I64
sg27
I135
sg28
I29
sg29
g30
sg31
g30
sg32
F61.0
sg33
g30
sg34
F-3.0
sbag1
(g16
g3
Ntp362
Rp363
(dp364
g20
F0.9989427924156189
sg21
F368.5
sg22
F167.5
sg23
I-1
sg24
I-1
sg25
I201
sg26
F0.9989427924156189
sg13
I67
sg27
I268
sg28
I329
sg29
g30
sg31
g30
sg32
F362.5
sg33
g30
sg34
F295.5
sbag1
(g16
g3
Ntp365
Rp366
(dp367
g20
F0.9999977350234985
sg21
F373.5
sg22
F140.5
sg23
I-1
sg24
I-1
sg25
I233
sg26
F0.999997615814209
sg13
I75
sg27
I257
sg28
I25
sg29
g30
sg31
g30
sg32
F62.5
sg33
g30
sg34
F-12.5
sbag1
(g16
g3
Ntp368
Rp369
(dp370
g20
F0.9765400290489197
sg21
F348.5
sg22
F187.5
sg23
I-1
sg24
I-1
sg25
I161
sg26
F0.9541704058647156
sg13
I50
sg27
I268
sg28
I162
sg29
g30
sg31
g30
sg32
F187.0
sg33
g30
sg34
F137.0
sbag1
(g16
g3
Ntp371
Rp372
(dp373
g20
F0.9999768733978271
sg21
F328.0
sg22
F180.0
sg23
I-1
sg24
I-1
sg25
I148
sg26
F0.9999750852584839
sg13
I49
sg27
I254
sg28
I226
sg29
g30
sg31
g30
sg32
F250.5
sg33
g30
sg34
F201.5
sbag1
(g16
g3
Ntp374
Rp375
(dp376
g20
F0.9999854564666748
sg21
F347.0
sg22
F177.0
sg23
I-1
sg24
I-1
sg25
I170
sg26
F0.9999812841415405
sg13
I59
sg27
I262
sg28
I314
sg29
g30
sg31
g30
sg32
F343.5
sg33
g30
sg34
F284.5
sbag1
(g16
g3
Ntp377
Rp378
(dp379
g20
F0.9999982118606567
sg21
F334.5
sg22
F137.5
sg23
I-1
sg24
I-1
sg25
I197
sg26
F0.9999970197677612
sg13
I72
sg27
I236
sg28
I517
sg29
g30
sg31
g30
sg32
F553.0
sg33
g30
sg34
F481.0
sbag1
(g16
g3
Ntp380
Rp381
(dp382
g20
F0.9999983310699463
sg21
F359.5
sg22
F168.5
sg23
I-1
sg24
I-1
sg25
I191
sg26
F0.9999959468841553
sg13
I62
sg27
I264
sg28
I147
sg29
g30
sg31
g30
sg32
F178.0
sg33
g30
sg34
F116.0
sbag1
(g16
g3
Ntp383
Rp384
(dp385
g20
F0.9999587535858154
sg21
F348.0
sg22
F184.0
sg23
I-1
sg24
I-1
sg25
I164
sg26
F0.999495267868042
sg13
I63
sg27
I266
sg28
I274
sg29
g30
sg31
g30
sg32
F305.5
sg33
g30
sg34
F242.5
sbasg56
g9
sg25
I-1
sg57
g9
sbag1
(g2
g3
Ntp386
Rp387
(dp388
g7
I-1
sg8
g9
sg10
I12
sg11
S'TUD-Crossing/frames_tensorbox/000013.jpg'
p389
sg13
I-1
sg14
(lp390
g1
(g16
g3
Ntp391
Rp392
(dp393
g20
F0.9999990463256836
sg21
F370.5
sg22
F141.5
sg23
I-1
sg24
I-1
sg25
I229
sg26
F0.9999990463256836
sg13
I77
sg27
I256
sg28
I29
sg29
g30
sg31
g30
sg32
F67.5
sg33
g30
sg34
F-9.5
sbag1
(g16
g3
Ntp394
Rp395
(dp396
g20
F0.9999758005142212
sg21
F324.5
sg22
F175.5
sg23
I-1
sg24
I-1
sg25
I149
sg26
F0.9999758005142212
sg13
I46
sg27
I250
sg28
I236
sg29
g30
sg31
g30
sg32
F259.0
sg33
g30
sg34
F213.0
sbag1
(g16
g3
Ntp397
Rp398
(dp399
g20
F0.9999746084213257
sg21
F330.5
sg22
F175.5
sg23
I-1
sg24
I-1
sg25
I155
sg26
F0.9999746084213257
sg13
I48
sg27
I253
sg28
I321
sg29
g30
sg31
g30
sg32
F345.0
sg33
g30
sg34
F297.0
sbag1
(g16
g3
Ntp400
Rp401
(dp402
g20
F0.9999985694885254
sg21
F334.5
sg22
F151.5
sg23
I-1
sg24
I-1
sg25
I183
sg26
F0.9999985694885254
sg13
I69
sg27
I243
sg28
I517
sg29
g30
sg31
g30
sg32
F551.5
sg33
g30
sg34
F482.5
sbag1
(g16
g3
Ntp403
Rp404
(dp405
g20
F0.808945894241333
sg21
F351.0
sg22
F181.0
sg23
I-1
sg24
I-1
sg25
I170
sg26
F0.808945894241333
sg13
I50
sg27
I266
sg28
I168
sg29
g30
sg31
g30
sg32
F193.0
sg33
g30
sg34
F143.0
sbag1
(g16
g3
Ntp406
Rp407
(dp408
g20
F0.9999845027923584
sg21
F336.0
sg22
F174.0
sg23
I-1
sg24
I-1
sg25
I162
sg26
F0.9999828338623047
sg13
I51
sg27
I255
sg28
I151
sg29
g30
sg31
g30
sg32
F176.5
sg33
g30
sg34
F125.5
sbag1
(g16
g3
Ntp409
Rp410
(dp411
g20
F0.9993805885314941
sg21
F342.5
sg22
F185.5
sg23
I-1
sg24
I-1
sg25
I157
sg26
F0.9993805885314941
sg13
I53
sg27
I264
sg28
I266
sg29
g30
sg31
g30
sg32
F292.5
sg33
g30
sg34
F239.5
sbag1
(g16
g3
Ntp412
Rp413
(dp414
g20
F0.9996399879455566
sg21
F366.5
sg22
F159.5
sg23
I-1
sg24
I-1
sg25
I207
sg26
F0.9989053010940552
sg13
I64
sg27
I263
sg28
I336
sg29
g30
sg31
g30
sg32
F368.0
sg33
g30
sg34
F304.0
sbag1
(g16
g3
Ntp415
Rp416
(dp417
g20
F0.9998420476913452
sg21
F341.0
sg22
F185.0
sg23
I-1
sg24
I-1
sg25
I156
sg26
F0.9998420476913452
sg13
I53
sg27
I263
sg28
I208
sg29
g30
sg31
g30
sg32
F234.5
sg33
g30
sg34
F181.5
sbag1
(g16
g3
Ntp418
Rp419
(dp420
g20
F0.7674325108528137
sg21
F239.5
sg22
F26.5
sg23
I-1
sg24
I-1
sg25
I213
sg26
F0.7674325108528137
sg13
I61
sg27
I133
sg28
I28
sg29
g30
sg31
g30
sg32
F58.5
sg33
g30
sg34
F-2.5
sbasg56
g9
sg25
I-1
sg57
g9
sbag1
(g2
g3
Ntp421
Rp422
(dp423
g7
I-1
sg8
g9
sg10
I13
sg11
S'TUD-Crossing/frames_tensorbox/000014.jpg'
p424
sg13
I-1
sg14
(lp425
g1
(g16
g3
Ntp426
Rp427
(dp428
g20
F0.9999520778656006
sg21
F353.0
sg22
F167.0
sg23
I-1
sg24
I-1
sg25
I186
sg26
F0.9999520778656006
sg13
I57
sg27
I260
sg28
I210
sg29
g30
sg31
g30
sg32
F238.5
sg33
g30
sg34
F181.5
sbag1
(g16
g3
Ntp429
Rp430
(dp431
g20
F0.9999990463256836
sg21
F331.5
sg22
F154.5
sg23
I-1
sg24
I-1
sg25
I177
sg26
F0.9999990463256836
sg13
I71
sg27
I243
sg28
I521
sg29
g30
sg31
g30
sg32
F556.5
sg33
g30
sg34
F485.5
sbag1
(g16
g3
Ntp432
Rp433
(dp434
g20
F0.9999992847442627
sg21
F367.0
sg22
F141.0
sg23
I-1
sg24
I-1
sg25
I226
sg26
F0.9999991655349731
sg13
I76
sg27
I254
sg28
I34
sg29
g30
sg31
g30
sg32
F72.0
sg33
g30
sg34
F-4.0
sbag1
(g16
g3
Ntp435
Rp436
(dp437
g20
F0.999193012714386
sg21
F353.0
sg22
F175.0
sg23
I-1
sg24
I-1
sg25
I178
sg26
F0.9944106936454773
sg13
I56
sg27
I264
sg28
I177
sg29
g30
sg31
g30
sg32
F205.0
sg33
g30
sg34
F149.0
sbag1
(g16
g3
Ntp438
Rp439
(dp440
g20
F0.9999819993972778
sg21
F333.5
sg22
F182.5
sg23
I-1
sg24
I-1
sg25
I151
sg26
F0.9999778270721436
sg13
I50
sg27
I258
sg28
I323
sg29
g30
sg31
g30
sg32
F348.0
sg33
g30
sg34
F298.0
sbag1
(g16
g3
Ntp441
Rp442
(dp443
g20
F0.9995158910751343
sg21
F360.0
sg22
F164.0
sg23
I-1
sg24
I-1
sg25
I196
sg26
F0.9991114735603333
sg13
I61
sg27
I262
sg28
I337
sg29
g30
sg31
g30
sg32
F367.5
sg33
g30
sg34
F306.5
sbag1
(g16
g3
Ntp444
Rp445
(dp446
g20
F0.9999967813491821
sg21
F361.0
sg22
F167.0
sg23
I-1
sg24
I-1
sg25
I194
sg26
F0.9999868869781494
sg13
I65
sg27
I264
sg28
I159
sg29
g30
sg31
g30
sg32
F191.5
sg33
g30
sg34
F126.5
sbag1
(g16
g3
Ntp447
Rp448
(dp449
g20
F0.999908447265625
sg21
F335.0
sg22
F191.0
sg23
I-1
sg24
I-1
sg25
I144
sg26
F0.9999023675918579
sg13
I48
sg27
I263
sg28
I246
sg29
g30
sg31
g30
sg32
F270.0
sg33
g30
sg34
F222.0
sbasg56
g9
sg25
I-1
sg57
g9
sbag1
(g2
g3
Ntp450
Rp451
(dp452
g7
I-1
sg8
g9
sg10
I14
sg11
S'TUD-Crossing/frames_tensorbox/000015.jpg'
p453
sg13
I-1
sg14
(lp454
g1
(g16
g3
Ntp455
Rp456
(dp457
g20
F0.9877164959907532
sg21
F239.5
sg22
F28.5
sg23
I-1
sg24
I-1
sg25
I211
sg26
F0.9877164959907532
sg13
I59
sg27
I134
sg28
I28
sg29
g30
sg31
g30
sg32
F57.5
sg33
g30
sg34
F-1.5
sbag1
(g16
g3
Ntp458
Rp459
(dp460
g20
F0.9999994039535522
sg21
F371.5
sg22
F138.5
sg23
I-1
sg24
I-1
sg25
I233
sg26
F0.9999994039535522
sg13
I77
sg27
I255
sg28
I36
sg29
g30
sg31
g30
sg32
F74.5
sg33
g30
sg34
F-2.5
sbag1
(g16
g3
Ntp461
Rp462
(dp463
g20
F0.9994402527809143
sg21
F330.5
sg22
F177.5
sg23
I-1
sg24
I-1
sg25
I153
sg26
F0.9994402527809143
sg13
I47
sg27
I254
sg28
I209
sg29
g30
sg31
g30
sg32
F232.5
sg33
g30
sg34
F185.5
sbag1
(g16
g3
Ntp464
Rp465
(dp466
g20
F0.9999995231628418
sg21
F335.0
sg22
F143.0
sg23
I-1
sg24
I-1
sg25
I192
sg26
F0.9999994039535522
sg13
I74
sg27
I239
sg28
I524
sg29
g30
sg31
g30
sg32
F561.0
sg33
g30
sg34
F487.0
sbag1
(g16
g3
Ntp467
Rp468
(dp469
g20
F0.9978054165840149
sg21
F345.0
sg22
F191.0
sg23
I-1
sg24
I-1
sg25
I154
sg26
F0.9947783946990967
sg13
I48
sg27
I268
sg28
I177
sg29
g30
sg31
g30
sg32
F201.0
sg33
g30
sg34
F153.0
sbag1
(g16
g3
Ntp470
Rp471
(dp472
g20
F0.9999450445175171
sg21
F323.0
sg22
F183.0
sg23
I-1
sg24
I-1
sg25
I140
sg26
F0.9999445676803589
sg13
I45
sg27
I253
sg28
I251
sg29
g30
sg31
g30
sg32
F273.5
sg33
g30
sg34
F228.5
sbag1
(g16
g3
Ntp473
Rp474
(dp475
g20
F0.9906762838363647
sg21
F356.5
sg22
F173.5
sg23
I-1
sg24
I-1
sg25
I183
sg26
F0.9751160144805908
sg13
I57
sg27
I265
sg28
I350
sg29
g30
sg31
g30
sg32
F378.5
sg33
g30
sg34
F321.5
sbag1
(g16
g3
Ntp476
Rp477
(dp478
g20
F0.9999874830245972
sg21
F353.5
sg22
F188.5
sg23
I-1
sg24
I-1
sg25
I165
sg26
F0.9999799728393555
sg13
I54
sg27
I271
sg28
I160
sg29
g30
sg31
g30
sg32
F187.0
sg33
g30
sg34
F133.0
sbag1
(g16
g3
Ntp479
Rp480
(dp481
g20
F0.9999953508377075
sg21
F351.0
sg22
F185.0
sg23
I-1
sg24
I-1
sg25
I166
sg26
F0.9999921321868896
sg13
I60
sg27
I268
sg28
I328
sg29
g30
sg31
g30
sg32
F358.0
sg33
g30
sg34
F298.0
sbasg56
g9
sg25
I-1
sg57
g9
sbag1
(g2
g3
Ntp482
Rp483
(dp484
g7
I-1
sg8
g9
sg10
I15
sg11
S'TUD-Crossing/frames_tensorbox/000016.jpg'
p485
sg13
I-1
sg14
(lp486
g1
(g16
g3
Ntp487
Rp488
(dp489
g20
F0.9999902248382568
sg21
F341.5
sg22
F184.5
sg23
I-1
sg24
I-1
sg25
I157
sg26
F0.9995740056037903
sg13
I52
sg27
I263
sg28
I167
sg29
g30
sg31
g30
sg32
F193.0
sg33
g30
sg34
F141.0
sbag1
(g16
g3
Ntp490
Rp491
(dp492
g20
F0.9926573634147644
sg21
F337.5
sg22
F190.5
sg23
I-1
sg24
I-1
sg25
I147
sg26
F0.9926573634147644
sg13
I44
sg27
I264
sg28
I187
sg29
g30
sg31
g30
sg32
F209.0
sg33
g30
sg34
F165.0
sbag1
(g16
g3
Ntp493
Rp494
(dp495
g20
F0.9994111061096191
sg21
F359.5
sg22
F158.5
sg23
I-1
sg24
I-1
sg25
I201
sg26
F0.9972385168075562
sg13
I66
sg27
I259
sg28
I355
sg29
g30
sg31
g30
sg32
F388.0
sg33
g30
sg34
F322.0
sbag1
(g16
g3
Ntp496
Rp497
(dp498
g20
F0.9999997615814209
sg21
F370.5
sg22
F137.5
sg23
I-1
sg24
I-1
sg25
I233
sg26
F0.9999996423721313
sg13
I78
sg27
I254
sg28
I40
sg29
g30
sg31
g30
sg32
F79.0
sg33
g30
sg34
F1.0
sbag1
(g16
g3
Ntp499
Rp500
(dp501
g20
F0.9999986886978149
sg21
F328.0
sg22
F148.0
sg23
I-1
sg24
I-1
sg25
I180
sg26
F0.9999983310699463
sg13
I66
sg27
I238
sg28
I529
sg29
g30
sg31
g30
sg32
F562.0
sg33
g30
sg34
F496.0
sbag1
(g16
g3
Ntp502
Rp503
(dp504
g20
F0.9999796152114868
sg21
F334.0
sg22
F188.0
sg23
I-1
sg24
I-1
sg25
I146
sg26
F0.9999737739562988
sg13
I50
sg27
I261
sg28
I256
sg29
g30
sg31
g30
sg32
F281.0
sg33
g30
sg34
F231.0
sbag1
(g16
g3
Ntp505
Rp506
(dp507
g20
F0.9999979734420776
sg21
F359.5
sg22
F168.5
sg23
I-1
sg24
I-1
sg25
I191
sg26
F0.9999958276748657
sg13
I73
sg27
I264
sg28
I320
sg29
g30
sg31
g30
sg32
F356.5
sg33
g30
sg34
F283.5
sbasg56
g9
sg25
I-1
sg57
g9
sbag1
(g2
g3
Ntp508
Rp509
(dp510
g7
I-1
sg8
g9
sg10
I16
sg11
S'TUD-Crossing/frames_tensorbox/000017.jpg'
p511
sg13
I-1
sg14
(lp512
g1
(g16
g3
Ntp513
Rp514
(dp515
g20
F0.9999898672103882
sg21
F346.5
sg22
F167.5
sg23
I-1
sg24
I-1
sg25
I179
sg26
F0.9872683882713318
sg13
I58
sg27
I257
sg28
I346
sg29
g30
sg31
g30
sg32
F375.0
sg33
g30
sg34
F317.0
sbag1
(g16
g3
Ntp516
Rp517
(dp518
g20
F0.9686506986618042
sg21
F333.5
sg22
F184.5
sg23
I-1
sg24
I-1
sg25
I149
sg26
F0.9686506986618042
sg13
I47
sg27
I259
sg28
I294
sg29
g30
sg31
g30
sg32
F317.5
sg33
g30
sg34
F270.5
sbag1
(g16
g3
Ntp519
Rp520
(dp521
g20
F0.9891470670700073
sg21
F365.5
sg22
F162.5
sg23
I-1
sg24
I-1
sg25
I203
sg26
F0.9891470670700073
sg13
I65
sg27
I264
sg28
I363
sg29
g30
sg31
g30
sg32
F395.5
sg33
g30
sg34
F330.5
sbag1
(g16
g3
Ntp522
Rp523
(dp524
g20
F0.9999998807907104
sg21
F372.5
sg22
F137.5
sg23
I-1
sg24
I-1
sg25
I235
sg26
F0.9999997615814209
sg13
I78
sg27
I255
sg28
I43
sg29
g30
sg31
g30
sg32
F82.0
sg33
g30
sg34
F4.0
sbag1
(g16
g3
Ntp525
Rp526
(dp527
g20
F0.9999991655349731
sg21
F328.0
sg22
F154.0
sg23
I-1
sg24
I-1
sg25
I174
sg26
F0.9999988079071045
sg13
I68
sg27
I241
sg28
I533
sg29
g30
sg31
g30
sg32
F567.0
sg33
g30
sg34
F499.0
sbag1
(g16
g3
Ntp528
Rp529
(dp530
g20
F0.9999969005584717
sg21
F359.0
sg22
F175.0
sg23
I-1
sg24
I-1
sg25
I184
sg26
F0.9999964237213135
sg13
I60
sg27
I267
sg28
I171
sg29
g30
sg31
g30
sg32
F201.0
sg33
g30
sg34
F141.0
sbag1
(g16
g3
Ntp531
Rp532
(dp533
g20
F0.9999885559082031
sg21
F335.5
sg22
F188.5
sg23
I-1
sg24
I-1
sg25
I147
sg26
F0.9999843835830688
sg13
I51
sg27
I262
sg28
I262
sg29
g30
sg31
g30
sg32
F287.5
sg33
g30
sg34
F236.5
sbasg56
g9
sg25
I-1
sg57
g9
sbag1
(g2
g3
Ntp534
Rp535
(dp536
g7
I-1
sg8
g9
sg10
I17
sg11
S'TUD-Crossing/frames_tensorbox/000018.jpg'
p537
sg13
I-1
sg14
(lp538
g1
(g16
g3
Ntp539
Rp540
(dp541
g20
F0.8225098252296448
sg21
F364.0
sg22
F172.0
sg23
I-1
sg24
I-1
sg25
I192
sg26
F0.8225098252296448
sg13
I64
sg27
I268
sg28
I367
sg29
g30
sg31
g30
sg32
F399.0
sg33
g30
sg34
F335.0
sbag1
(g16
g3
Ntp542
Rp543
(dp544
g20
F0.9999991655349731
sg21
F337.0
sg22
F147.0
sg23
I-1
sg24
I-1
sg25
I190
sg26
F0.9999840259552002
sg13
I76
sg27
I242
sg28
I542
sg29
g30
sg31
g30
sg32
F580.0
sg33
g30
sg34
F504.0
sbag1
(g16
g3
Ntp545
Rp546
(dp547
g20
F0.9999994039535522
sg21
F369.0
sg22
F155.0
sg23
I-1
sg24
I-1
sg25
I214
sg26
F0.999998927116394
sg13
I70
sg27
I262
sg28
I42
sg29
g30
sg31
g30
sg32
F77.0
sg33
g30
sg34
F7.0
sbag1
(g16
g3
Ntp548
Rp549
(dp550
g20
F0.9972310662269592
sg21
F354.0
sg22
F188.0
sg23
I-1
sg24
I-1
sg25
I166
sg26
F0.9817301034927368
sg13
I51
sg27
I271
sg28
I190
sg29
g30
sg31
g30
sg32
F215.5
sg33
g30
sg34
F164.5
sbag1
(g16
g3
Ntp551
Rp552
(dp553
g20
F0.999987006187439
sg21
F325.5
sg22
F186.5
sg23
I-1
sg24
I-1
sg25
I139
sg26
F0.9999803304672241
sg13
I49
sg27
I256
sg28
I271
sg29
g30
sg31
g30
sg32
F295.5
sg33
g30
sg34
F246.5
sbag1
(g16
g3
Ntp554
Rp555
(dp556
g20
F0.999997615814209
sg21
F359.0
sg22
F173.0
sg23
I-1
sg24
I-1
sg25
I186
sg26
F0.9999973773956299
sg13
I61
sg27
I266
sg28
I176
sg29
g30
sg31
g30
sg32
F206.5
sg33
g30
sg34
F145.5
sbag1
(g16
g3
Ntp557
Rp558
(dp559
g20
F0.9999970197677612
sg21
F355.5
sg22
F166.5
sg23
I-1
sg24
I-1
sg25
I189
sg26
F0.999993085861206
sg13
I72
sg27
I261
sg28
I348
sg29
g30
sg31
g30
sg32
F384.0
sg33
g30
sg34
F312.0
sbasg56
g9
sg25
I-1
sg57
g9
sbag1
(g2
g3
Ntp560
Rp561
(dp562
g7
I-1
sg8
g9
sg10
I18
sg11
S'TUD-Crossing/frames_tensorbox/000019.jpg'
p563
sg13
I-1
sg14
(lp564
g1
(g16
g3
Ntp565
Rp566
(dp567
g20
F0.9999344348907471
sg21
F326.0
sg22
F186.0
sg23
I-1
sg24
I-1
sg25
I140
sg26
F0.9996585845947266
sg13
I43
sg27
I256
sg28
I283
sg29
g30
sg31
g30
sg32
F304.5
sg33
g30
sg34
F261.5
sbag1
(g16
g3
Ntp568
Rp569
(dp570
g20
F0.9782378673553467
sg21
F365.5
sg22
F170.5
sg23
I-1
sg24
I-1
sg25
I195
sg26
F0.9782378673553467
sg13
I64
sg27
I268
sg28
I370
sg29
g30
sg31
g30
sg32
F402.0
sg33
g30
sg34
F338.0
sbag1
(g16
g3
Ntp571
Rp572
(dp573
g20
F0.9999961853027344
sg21
F331.5
sg22
F168.5
sg23
I-1
sg24
I-1
sg25
I163
sg26
F0.9999938011169434
sg13
I64
sg27
I250
sg28
I545
sg29
g30
sg31
g30
sg32
F577.0
sg33
g30
sg34
F513.0
sbag1
(g16
g3
Ntp574
Rp575
(dp576
g20
F0.9999990463256836
sg21
F368.5
sg22
F165.5
sg23
I-1
sg24
I-1
sg25
I203
sg26
F0.999998927116394
sg13
I66
sg27
I267
sg28
I46
sg29
g30
sg31
g30
sg32
F79.0
sg33
g30
sg34
F13.0
sbag1
(g16
g3
Ntp577
Rp578
(dp579
g20
F0.9999988079071045
sg21
F358.5
sg22
F167.5
sg23
I-1
sg24
I-1
sg25
I191
sg26
F0.9999983310699463
sg13
I63
sg27
I263
sg28
I182
sg29
g30
sg31
g30
sg32
F213.5
sg33
g30
sg34
F150.5
sbag1
(g16
g3
Ntp580
Rp581
(dp582
g20
F0.991645872592926
sg21
F354.0
sg22
F184.0
sg23
I-1
sg24
I-1
sg25
I170
sg26
F0.991645872592926
sg13
I51
sg27
I269
sg28
I197
sg29
g30
sg31
g30
sg32
F222.5
sg33
g30
sg34
F171.5
sbag1
(g16
g3
Ntp583
Rp584
(dp585
g20
F0.9999972581863403
sg21
F356.5
sg22
F171.5
sg23
I-1
sg24
I-1
sg25
I185
sg26
F0.9999954700469971
sg13
I71
sg27
I264
sg28
I349
sg29
g30
sg31
g30
sg32
F384.5
sg33
g30
sg34
F313.5
sbasg56
g9
sg25
I-1
sg57
g9
sbag1
(g2
g3
Ntp586
Rp587
(dp588
g7
I-1
sg8
g9
sg10
I19
sg11
S'TUD-Crossing/frames_tensorbox/000020.jpg'
p589
sg13
I-1
sg14
(lp590
g1
(g16
g3
Ntp591
Rp592
(dp593
g20
F0.9999574422836304
sg21
F320.0
sg22
F180.0
sg23
I-1
sg24
I-1
sg25
I140
sg26
F0.9999465942382812
sg13
I44
sg27
I250
sg28
I287
sg29
g30
sg31
g30
sg32
F309.0
sg33
g30
sg34
F265.0
sbag1
(g16
g3
Ntp594
Rp595
(dp596
g20
F0.8459914326667786
sg21
F352.5
sg22
F169.5
sg23
I-1
sg24
I-1
sg25
I183
sg26
F0.8459914326667786
sg13
I60
sg27
I261
sg28
I389
sg29
g30
sg31
g30
sg32
F419.0
sg33
g30
sg34
F359.0
sbag1
(g16
g3
Ntp597
Rp598
(dp599
g20
F0.9999978542327881
sg21
F333.0
sg22
F165.0
sg23
I-1
sg24
I-1
sg25
I168
sg26
F0.9999973773956299
sg13
I66
sg27
I249
sg28
I549
sg29
g30
sg31
g30
sg32
F582.0
sg33
g30
sg34
F516.0
sbag1
(g16
g3
Ntp600
Rp601
(dp602
g20
F0.9999995231628418
sg21
F372.5
sg22
F153.5
sg23
I-1
sg24
I-1
sg25
I219
sg26
F0.9999991655349731
sg13
I69
sg27
I263
sg28
I47
sg29
g30
sg31
g30
sg32
F81.5
sg33
g30
sg34
F12.5
sbag1
(g16
g3
Ntp603
Rp604
(dp605
g20
F0.9036210775375366
sg21
F358.5
sg22
F185.5
sg23
I-1
sg24
I-1
sg25
I173
sg26
F0.9036210775375366
sg13
I53
sg27
I272
sg28
I205
sg29
g30
sg31
g30
sg32
F231.5
sg33
g30
sg34
F178.5
sbag1
(g16
g3
Ntp606
Rp607
(dp608
g20
F0.995093584060669
sg21
F340.0
sg22
F180.0
sg23
I-1
sg24
I-1
sg25
I160
sg26
F0.9841839075088501
sg13
I49
sg27
I260
sg28
I322
sg29
g30
sg31
g30
sg32
F346.5
sg33
g30
sg34
F297.5
sbag1
(g16
g3
Ntp609
Rp610
(dp611
g20
F0.999993085861206
sg21
F360.5
sg22
F175.5
sg23
I-1
sg24
I-1
sg25
I185
sg26
F0.9999887943267822
sg13
I62
sg27
I268
sg28
I188
sg29
g30
sg31
g30
sg32
F219.0
sg33
g30
sg34
F157.0
sbag1
(g16
g3
Ntp612
Rp613
(dp614
g20
F0.9999986886978149
sg21
F360.0
sg22
F164.0
sg23
I-1
sg24
I-1
sg25
I196
sg26
F0.9999966621398926
sg13
I70
sg27
I262
sg28
I357
sg29
g30
sg31
g30
sg32
F392.0
sg33
g30
sg34
F322.0
sbasg56
g9
sg25
I-1
sg57
g9
sbag1
(g2
g3
Ntp615
Rp616
(dp617
g7
I-1
sg8
g9
sg10
I20
sg11
S'TUD-Crossing/frames_tensorbox/000021.jpg'
p618
sg13
I-1
sg14
(lp619
g1
(g16
g3
Ntp620
Rp621
(dp622
g20
F0.998559296131134
sg21
F356.5
sg22
F169.5
sg23
I-1
sg24
I-1
sg25
I187
sg26
F0.998559296131134
sg13
I64
sg27
I263
sg28
I386
sg29
g30
sg31
g30
sg32
F418.0
sg33
g30
sg34
F354.0
sbag1
(g16
g3
Ntp623
Rp624
(dp625
g20
F0.9999992847442627
sg21
F339.0
sg22
F149.0
sg23
I-1
sg24
I-1
sg25
I190
sg26
F0.9999988079071045
sg13
I71
sg27
I244
sg28
I555
sg29
g30
sg31
g30
sg32
F590.5
sg33
g30
sg34
F519.5
sbag1
(g16
g3
Ntp626
Rp627
(dp628
g20
F0.9999628067016602
sg21
F319.5
sg22
F182.5
sg23
I-1
sg24
I-1
sg25
I137
sg26
F0.999962568283081
sg13
I43
sg27
I251
sg28
I289
sg29
g30
sg31
g30
sg32
F310.5
sg33
g30
sg34
F267.5
sbag1
(g16
g3
Ntp629
Rp630
(dp631
g20
F0.9999967813491821
sg21
F344.5
sg22
F179.5
sg23
I-1
sg24
I-1
sg25
I165
sg26
F0.9999959468841553
sg13
I58
sg27
I262
sg28
I365
sg29
g30
sg31
g30
sg32
F394.0
sg33
g30
sg34
F336.0
sbag1
(g16
g3
Ntp632
Rp633
(dp634
g20
F0.9999983310699463
sg21
F360.0
sg22
F162.0
sg23
I-1
sg24
I-1
sg25
I198
sg26
F0.9968729615211487
sg13
I63
sg27
I261
sg28
I46
sg29
g30
sg31
g30
sg32
F77.5
sg33
g30
sg34
F14.5
sbag1
(g16
g3
Ntp635
Rp636
(dp637
g20
F0.9999973773956299
sg21
F363.0
sg22
F171.0
sg23
I-1
sg24
I-1
sg25
I192
sg26
F0.9999957084655762
sg13
I65
sg27
I267
sg28
I194
sg29
g30
sg31
g30
sg32
F226.5
sg33
g30
sg34
F161.5
sbag1
(g16
g3
Ntp638
Rp639
(dp640
g20
F0.7894507646560669
sg21
F359.0
sg22
F169.0
sg23
I-1
sg24
I-1
sg25
I190
sg26
F0.7894507646560669
sg13
I59
sg27
I264
sg28
I74
sg29
g30
sg31
g30
sg32
F103.5
sg33
g30
sg34
F44.5
sbasg56
g9
sg25
I-1
sg57
g9
sbag1
(g2
g3
Ntp641
Rp642
(dp643
g7
I-1
sg8
g9
sg10
I21
sg11
S'TUD-Crossing/frames_tensorbox/000022.jpg'
p644
sg13
I-1
sg14
(lp645
g1
(g16
g3
Ntp646
Rp647
(dp648
g20
F0.9999665021896362
sg21
F323.5
sg22
F184.5
sg23
I-1
sg24
I-1
sg25
I139
sg26
F0.9993776679039001
sg13
I42
sg27
I254
sg28
I296
sg29
g30
sg31
g30
sg32
F317.0
sg33
g30
sg34
F275.0
sbag1
(g16
g3
Ntp649
Rp650
(dp651
g20
F0.9999995231628418
sg21
F364.5
sg22
F161.5
sg23
I-1
sg24
I-1
sg25
I203
sg26
F0.9999990463256836
sg13
I71
sg27
I263
sg28
I49
sg29
g30
sg31
g30
sg32
F84.5
sg33
g30
sg34
F13.5
sbag1
(g16
g3
Ntp652
Rp653
(dp654
g20
F0.8592067956924438
sg21
F362.0
sg22
F160.0
sg23
I-1
sg24
I-1
sg25
I202
sg26
F0.8592067956924438
sg13
I65
sg27
I261
sg28
I78
sg29
g30
sg31
g30
sg32
F110.5
sg33
g30
sg34
F45.5
sbag1
(g16
g3
Ntp655
Rp656
(dp657
g20
F0.9999979734420776
sg21
F360.0
sg22
F178.0
sg23
I-1
sg24
I-1
sg25
I182
sg26
F0.9999974966049194
sg13
I61
sg27
I269
sg28
I203
sg29
g30
sg31
g30
sg32
F233.5
sg33
g30
sg34
F172.5
sbag1
(g16
g3
Ntp658
Rp659
(dp660
g20
F0.9999436140060425
sg21
F336.5
sg22
F179.5
sg23
I-1
sg24
I-1
sg25
I157
sg26
F0.999935507774353
sg13
I52
sg27
I258
sg28
I344
sg29
g30
sg31
g30
sg32
F370.0
sg33
g30
sg34
F318.0
sbag1
(g16
g3
Ntp661
Rp662
(dp663
g20
F0.9999979734420776
sg21
F330.0
sg22
F156.0
sg23
I-1
sg24
I-1
sg25
I174
sg26
F0.9999978542327881
sg13
I64
sg27
I243
sg28
I561
sg29
g30
sg31
g30
sg32
F593.0
sg33
g30
sg34
F529.0
sbag1
(g16
g3
Ntp664
Rp665
(dp666
g20
F0.9999855756759644
sg21
F359.0
sg22
F165.0
sg23
I-1
sg24
I-1
sg25
I194
sg26
F0.9999810457229614
sg13
I70
sg27
I262
sg28
I368
sg29
g30
sg31
g30
sg32
F403.0
sg33
g30
sg34
F333.0
sbasg56
g9
sg25
I-1
sg57
g9
sbag1
(g2
g3
Ntp667
Rp668
(dp669
g7
I-1
sg8
g9
sg10
I22
sg11
S'TUD-Crossing/frames_tensorbox/000023.jpg'
p670
sg13
I-1
sg14
(lp671
g1
(g16
g3
Ntp672
Rp673
(dp674
g20
F0.9994939565658569
sg21
F339.5
sg22
F158.5
sg23
I-1
sg24
I-1
sg25
I181
sg26
F0.9994939565658569
sg13
I58
sg27
I249
sg28
I33
sg29
g30
sg31
g30
sg32
F62.0
sg33
g30
sg34
F4.0
sbag1
(g16
g3
Ntp675
Rp676
(dp677
g20
F0.9999988079071045
sg21
F333.0
sg22
F163.0
sg23
I-1
sg24
I-1
sg25
I170
sg26
F0.9999988079071045
sg13
I66
sg27
I248
sg28
I571
sg29
g30
sg31
g30
sg32
F604.0
sg33
g30
sg34
F538.0
sbag1
(g16
g3
Ntp678
Rp679
(dp680
g20
F0.9959671497344971
sg21
F373.5
sg22
F162.5
sg23
I-1
sg24
I-1
sg25
I211
sg26
F0.9959671497344971
sg13
I65
sg27
I268
sg28
I73
sg29
g30
sg31
g30
sg32
F105.5
sg33
g30
sg34
F40.5
sbag1
(g16
g3
Ntp681
Rp682
(dp683
g20
F0.9999985694885254
sg21
F361.5
sg22
F168.5
sg23
I-1
sg24
I-1
sg25
I193
sg26
F0.9999980926513672
sg13
I63
sg27
I265
sg28
I205
sg29
g30
sg31
g30
sg32
F236.5
sg33
g30
sg34
F173.5
sbag1
(g16
g3
Ntp684
Rp685
(dp686
g20
F0.9999721050262451
sg21
F323.0
sg22
F181.0
sg23
I-1
sg24
I-1
sg25
I142
sg26
F0.9999648332595825
sg13
I43
sg27
I252
sg28
I302
sg29
g30
sg31
g30
sg32
F323.5
sg33
g30
sg34
F280.5
sbag1
(g16
g3
Ntp687
Rp688
(dp689
g20
F0.9999946355819702
sg21
F356.5
sg22
F171.5
sg23
I-1
sg24
I-1
sg25
I185
sg26
F0.9999921321868896
sg13
I68
sg27
I264
sg28
I378
sg29
g30
sg31
g30
sg32
F412.0
sg33
g30
sg34
F344.0
sbasg56
g9
sg25
I-1
sg57
g9
sbag1
(g2
g3
Ntp690
Rp691
(dp692
g7
I-1
sg8
g9
sg10
I23
sg11
S'TUD-Crossing/frames_tensorbox/000024.jpg'
p693
sg13
I-1
sg14
(lp694
g1
(g16
g3
Ntp695
Rp696
(dp697
g20
F0.9988129138946533
sg21
F364.0
sg22
F164.0
sg23
I-1
sg24
I-1
sg25
I200
sg26
F0.9984902143478394
sg13
I61
sg27
I264
sg28
I73
sg29
g30
sg31
g30
sg32
F103.5
sg33
g30
sg34
F42.5
sbag1
(g16
g3
Ntp698
Rp699
(dp700
g20
F0.9999995231628418
sg21
F367.0
sg22
F149.0
sg23
I-1
sg24
I-1
sg25
I218
sg26
F0.9999992847442627
sg13
I71
sg27
I258
sg28
I213
sg29
g30
sg31
g30
sg32
F248.5
sg33
g30
sg34
F177.5
sbag1
(g16
g3
Ntp701
Rp702
(dp703
g20
F0.999968409538269
sg21
F320.0
sg22
F180.0
sg23
I-1
sg24
I-1
sg25
I140
sg26
F0.9999604225158691
sg13
I45
sg27
I250
sg28
I304
sg29
g30
sg31
g30
sg32
F326.5
sg33
g30
sg34
F281.5
sbag1
(g16
g3
Ntp704
Rp705
(dp706
g20
F0.999998927116394
sg21
F359.0
sg22
F159.0
sg23
I-1
sg24
I-1
sg25
I200
sg26
F0.9999982118606567
sg13
I73
sg27
I259
sg28
I385
sg29
g30
sg31
g30
sg32
F421.5
sg33
g30
sg34
F348.5
sbag1
(g16
g3
Ntp707
Rp708
(dp709
g20
F0.9999986886978149
sg21
F328.5
sg22
F155.5
sg23
I-1
sg24
I-1
sg25
I173
sg26
F0.9999977350234985
sg13
I65
sg27
I242
sg28
I574
sg29
g30
sg31
g30
sg32
F606.5
sg33
g30
sg34
F541.5
sbag1
(g16
g3
Ntp710
Rp711
(dp712
g20
F0.9999927282333374
sg21
F347.0
sg22
F171.0
sg23
I-1
sg24
I-1
sg25
I176
sg26
F0.9999809265136719
sg13
I57
sg27
I259
sg28
I33
sg29
g30
sg31
g30
sg32
F61.5
sg33
g30
sg34
F4.5
sbasg56
g9
sg25
I-1
sg57
g9
sbag1
(g2
g3
Ntp713
Rp714
(dp715
g7
I-1
sg8
g9
sg10
I24
sg11
S'TUD-Crossing/frames_tensorbox/000025.jpg'
p716
sg13
I-1
sg14
(lp717
g1
(g16
g3
Ntp718
Rp719
(dp720
g20
F0.9980893731117249
sg21
F353.5
sg22
F172.5
sg23
I-1
sg24
I-1
sg25
I181
sg26
F0.9748947024345398
sg13
I59
sg27
I263
sg28
I77
sg29
g30
sg31
g30
sg32
F106.5
sg33
g30
sg34
F47.5
sbag1
(g16
g3
Ntp721
Rp722
(dp723
g20
F0.9946288466453552
sg21
F352.0
sg22
F158.0
sg23
I-1
sg24
I-1
sg25
I194
sg26
F0.9946288466453552
sg13
I64
sg27
I255
sg28
I412
sg29
g30
sg31
g30
sg32
F444.0
sg33
g30
sg34
F380.0
sbag1
(g16
g3
Ntp724
Rp725
(dp726
g20
F0.9999992847442627
sg21
F363.0
sg22
F149.0
sg23
I-1
sg24
I-1
sg25
I214
sg26
F0.9999985694885254
sg13
I72
sg27
I256
sg28
I213
sg29
g30
sg31
g30
sg32
F249.0
sg33
g30
sg34
F177.0
sbag1
(g16
g3
Ntp727
Rp728
(dp729
g20
F0.9999990463256836
sg21
F355.5
sg22
F156.5
sg23
I-1
sg24
I-1
sg25
I199
sg26
F0.9999978542327881
sg13
I70
sg27
I256
sg28
I391
sg29
g30
sg31
g30
sg32
F426.0
sg33
g30
sg34
F356.0
sbag1
(g16
g3
Ntp730
Rp731
(dp732
g20
F0.9999979734420776
sg21
F335.0
sg22
F141.0
sg23
I-1
sg24
I-1
sg25
I194
sg26
F0.9999971389770508
sg13
I68
sg27
I238
sg28
I576
sg29
g30
sg31
g30
sg32
F610.0
sg33
g30
sg34
F542.0
sbag1
(g16
g3
Ntp733
Rp734
(dp735
g20
F0.9999923706054688
sg21
F351.0
sg22
F169.0
sg23
I-1
sg24
I-1
sg25
I182
sg26
F0.9999884366989136
sg13
I57
sg27
I260
sg28
I34
sg29
g30
sg31
g30
sg32
F62.5
sg33
g30
sg34
F5.5
sbag1
(g16
g3
Ntp736
Rp737
(dp738
g20
F0.9999226331710815
sg21
F337.0
sg22
F191.0
sg23
I-1
sg24
I-1
sg25
I146
sg26
F0.999913215637207
sg13
I47
sg27
I264
sg28
I315
sg29
g30
sg31
g30
sg32
F338.5
sg33
g30
sg34
F291.5
sbag1
(g16
g3
Ntp739
Rp740
(dp741
g20
F0.6216344833374023
sg21
F317.5
sg22
F182.5
sg23
I-1
sg24
I-1
sg25
I135
sg26
F0.6216344833374023
sg13
I40
sg27
I250
sg28
I250
sg29
g30
sg31
g30
sg32
F270.0
sg33
g30
sg34
F230.0
sbasg56
g9
sg25
I-1
sg57
g9
sbag1
(g2
g3
Ntp742
Rp743
(dp744
g7
I-1
sg8
g9
sg10
I25
sg11
S'TUD-Crossing/frames_tensorbox/000026.jpg'
p745
sg13
I-1
sg14
(lp746
g1
(g16
g3
Ntp747
Rp748
(dp749
g20
F0.9607546329498291
sg21
F315.0
sg22
F179.0
sg23
I-1
sg24
I-1
sg25
I136
sg26
F0.9607546329498291
sg13
I42
sg27
I247
sg28
I250
sg29
g30
sg31
g30
sg32
F271.0
sg33
g30
sg34
F229.0
sbag1
(g16
g3
Ntp750
Rp751
(dp752
g20
F0.9999932050704956
sg21
F324.0
sg22
F162.0
sg23
I-1
sg24
I-1
sg25
I162
sg26
F0.9999929666519165
sg13
I58
sg27
I243
sg28
I579
sg29
g30
sg31
g30
sg32
F608.0
sg33
g30
sg34
F550.0
sbag1
(g16
g3
Ntp753
Rp754
(dp755
g20
F0.99972003698349
sg21
F354.5
sg22
F161.5
sg23
I-1
sg24
I-1
sg25
I193
sg26
F0.9992607235908508
sg13
I63
sg27
I258
sg28
I66
sg29
g30
sg31
g30
sg32
F97.5
sg33
g30
sg34
F34.5
sbag1
(g16
g3
Ntp756
Rp757
(dp758
g20
F0.9999997615814209
sg21
F364.0
sg22
F138.0
sg23
I-1
sg24
I-1
sg25
I226
sg26
F0.9999992847442627
sg13
I77
sg27
I251
sg28
I218
sg29
g30
sg31
g30
sg32
F256.5
sg33
g30
sg34
F179.5
sbag1
(g16
g3
Ntp759
Rp760
(dp761
g20
F0.9999983310699463
sg21
F348.5
sg22
F165.5
sg23
I-1
sg24
I-1
sg25
I183
sg26
F0.9999979734420776
sg13
I62
sg27
I257
sg28
I398
sg29
g30
sg31
g30
sg32
F429.0
sg33
g30
sg34
F367.0
sbag1
(g16
g3
Ntp762
Rp763
(dp764
g20
F0.999993085861206
sg21
F353.0
sg22
F173.0
sg23
I-1
sg24
I-1
sg25
I180
sg26
F0.9999902248382568
sg13
I59
sg27
I263
sg28
I31
sg29
g30
sg31
g30
sg32
F60.5
sg33
g30
sg34
F1.5
sbag1
(g16
g3
Ntp765
Rp766
(dp767
g20
F0.9999294281005859
sg21
F337.5
sg22
F192.5
sg23
I-1
sg24
I-1
sg25
I145
sg26
F0.999922513961792
sg13
I46
sg27
I265
sg28
I317
sg29
g30
sg31
g30
sg32
F340.0
sg33
g30
sg34
F294.0
sbasg56
g9
sg25
I-1
sg57
g9
sbag1
(g2
g3
Ntp768
Rp769
(dp770
g7
I-1
sg8
g9
sg10
I26
sg11
S'TUD-Crossing/frames_tensorbox/000027.jpg'
p771
sg13
I-1
sg14
(lp772
g1
(g16
g3
Ntp773
Rp774
(dp775
g20
F0.9400465488433838
sg21
F354.5
sg22
F171.5
sg23
I-1
sg24
I-1
sg25
I183
sg26
F0.9400465488433838
sg13
I57
sg27
I263
sg28
I95
sg29
g30
sg31
g30
sg32
F123.5
sg33
g30
sg34
F66.5
sbag1
(g16
g3
Ntp776
Rp777
(dp778
g20
F0.9413713216781616
sg21
F315.0
sg22
F175.0
sg23
I-1
sg24
I-1
sg25
I140
sg26
F0.9413713216781616
sg13
I44
sg27
I245
sg28
I258
sg29
g30
sg31
g30
sg32
F280.0
sg33
g30
sg34
F236.0
sbag1
(g16
g3
Ntp779
Rp780
(dp781
g20
F0.9999974966049194
sg21
F327.5
sg22
F156.5
sg23
I-1
sg24
I-1
sg25
I171
sg26
F0.9999969005584717
sg13
I64
sg27
I242
sg28
I583
sg29
g30
sg31
g30
sg32
F615.0
sg33
g30
sg34
F551.0
sbag1
(g16
g3
Ntp782
Rp783
(dp784
g20
F0.9998331069946289
sg21
F350.0
sg22
F160.0
sg23
I-1
sg24
I-1
sg25
I190
sg26
F0.999579131603241
sg13
I61
sg27
I255
sg28
I72
sg29
g30
sg31
g30
sg32
F102.5
sg33
g30
sg34
F41.5
sbag1
(g16
g3
Ntp785
Rp786
(dp787
g20
F0.9999997615814209
sg21
F364.0
sg22
F134.0
sg23
I-1
sg24
I-1
sg25
I230
sg26
F0.9999995231628418
sg13
I77
sg27
I249
sg28
I223
sg29
g30
sg31
g30
sg32
F261.5
sg33
g30
sg34
F184.5
sbag1
(g16
g3
Ntp788
Rp789
(dp790
g20
F0.9999992847442627
sg21
F361.0
sg22
F151.0
sg23
I-1
sg24
I-1
sg25
I210
sg26
F0.999998927116394
sg13
I74
sg27
I256
sg28
I391
sg29
g30
sg31
g30
sg32
F428.0
sg33
g30
sg34
F354.0
sbag1
(g16
g3
Ntp791
Rp792
(dp793
g20
F0.9999827146530151
sg21
F346.5
sg22
F153.5
sg23
I-1
sg24
I-1
sg25
I193
sg26
F0.9999507665634155
sg13
I68
sg27
I250
sg28
I402
sg29
g30
sg31
g30
sg32
F436.0
sg33
g30
sg34
F368.0
sbag1
(g16
g3
Ntp794
Rp795
(dp796
g20
F0.9999935626983643
sg21
F347.5
sg22
F178.5
sg23
I-1
sg24
I-1
sg25
I169
sg26
F0.9999934434890747
sg13
I59
sg27
I263
sg28
I31
sg29
g30
sg31
g30
sg32
F60.5
sg33
g30
sg34
F1.5
sbag1
(g16
g3
Ntp797
Rp798
(dp799
g20
F0.9999628067016602
sg21
F335.5
sg22
F188.5
sg23
I-1
sg24
I-1
sg25
I147
sg26
F0.9999462366104126
sg13
I51
sg27
I262
sg28
I318
sg29
g30
sg31
g30
sg32
F343.5
sg33
g30
sg34
F292.5
sbasg56
g9
sg25
I-1
sg57
g9
sbag1
(g2
g3
Ntp800
Rp801
(dp802
g7
I-1
sg8
g9
sg10
I27
sg11
S'TUD-Crossing/frames_tensorbox/000028.jpg'
p803
sg13
I-1
sg14
(lp804
g1
(g16
g3
Ntp805
Rp806
(dp807
g20
F0.9999996423721313
sg21
F378.5
sg22
F145.5
sg23
I-1
sg24
I-1
sg25
I233
sg26
F0.9989859461784363
sg13
I75
sg27
I262
sg28
I230
sg29
g30
sg31
g30
sg32
F267.5
sg33
g30
sg34
F192.5
sbag1
(g16
g3
Ntp808
Rp809
(dp810
g20
F0.9999983310699463
sg21
F332.0
sg22
F160.0
sg23
I-1
sg24
I-1
sg25
I172
sg26
F0.9999983310699463
sg13
I66
sg27
I246
sg28
I587
sg29
g30
sg31
g30
sg32
F620.0
sg33
g30
sg34
F554.0
sbag1
(g16
g3
Ntp811
Rp812
(dp813
g20
F0.9934410452842712
sg21
F360.5
sg22
F163.5
sg23
I-1
sg24
I-1
sg25
I197
sg26
F0.9934410452842712
sg13
I63
sg27
I262
sg28
I96
sg29
g30
sg31
g30
sg32
F127.5
sg33
g30
sg34
F64.5
sbag1
(g16
g3
Ntp814
Rp815
(dp816
g20
F0.9999532699584961
sg21
F360.0
sg22
F146.0
sg23
I-1
sg24
I-1
sg25
I214
sg26
F0.9997517466545105
sg13
I66
sg27
I253
sg28
I76
sg29
g30
sg31
g30
sg32
F109.0
sg33
g30
sg34
F43.0
sbag1
(g16
g3
Ntp817
Rp818
(dp819
g20
F0.9999961853027344
sg21
F349.0
sg22
F155.0
sg23
I-1
sg24
I-1
sg25
I194
sg26
F0.9999902248382568
sg13
I70
sg27
I252
sg28
I412
sg29
g30
sg31
g30
sg32
F447.0
sg33
g30
sg34
F377.0
sbag1
(g16
g3
Ntp820
Rp821
(dp822
g20
F0.9999959468841553
sg21
F351.0
sg22
F177.0
sg23
I-1
sg24
I-1
sg25
I174
sg26
F0.9999943971633911
sg13
I59
sg27
I264
sg28
I37
sg29
g30
sg31
g30
sg32
F66.5
sg33
g30
sg34
F7.5
sbag1
(g16
g3
Ntp823
Rp824
(dp825
g20
F0.9999752044677734
sg21
F332.5
sg22
F185.5
sg23
I-1
sg24
I-1
sg25
I147
sg26
F0.9999693632125854
sg13
I49
sg27
I259
sg28
I325
sg29
g30
sg31
g30
sg32
F349.5
sg33
g30
sg34
F300.5
sbasg56
g9
sg25
I-1
sg57
g9
sbag1
(g2
g3
Ntp826
Rp827
(dp828
g7
I-1
sg8
g9
sg10
I28
sg11
S'TUD-Crossing/frames_tensorbox/000029.jpg'
p829
sg13
I-1
sg14
(lp830
g1
(g16
g3
Ntp831
Rp832
(dp833
g20
F0.9999996423721313
sg21
F380.0
sg22
F154.0
sg23
I-1
sg24
I-1
sg25
I226
sg26
F0.9999996423721313
sg13
I74
sg27
I267
sg28
I236
sg29
g30
sg31
g30
sg32
F273.0
sg33
g30
sg34
F199.0
sbag1
(g16
g3
Ntp834
Rp835
(dp836
g20
F0.9926746487617493
sg21
F335.0
sg22
F161.0
sg23
I-1
sg24
I-1
sg25
I174
sg26
F0.9926746487617493
sg13
I55
sg27
I248
sg28
I351
sg29
g30
sg31
g30
sg32
F378.5
sg33
g30
sg34
F323.5
sbag1
(g16
g3
Ntp837
Rp838
(dp839
g20
F0.9999991655349731
sg21
F329.0
sg22
F163.0
sg23
I-1
sg24
I-1
sg25
I166
sg26
F0.9999991655349731
sg13
I70
sg27
I246
sg28
I595
sg29
g30
sg31
g30
sg32
F630.0
sg33
g30
sg34
F560.0
sbag1
(g16
g3
Ntp840
Rp841
(dp842
g20
F0.9939029812812805
sg21
F360.5
sg22
F175.5
sg23
I-1
sg24
I-1
sg25
I185
sg26
F0.9939029812812805
sg13
I56
sg27
I268
sg28
I99
sg29
g30
sg31
g30
sg32
F127.0
sg33
g30
sg34
F71.0
sbag1
(g16
g3
Ntp843
Rp844
(dp845
g20
F0.9999359846115112
sg21
F357.5
sg22
F166.5
sg23
I-1
sg24
I-1
sg25
I191
sg26
F0.9997538924217224
sg13
I61
sg27
I262
sg28
I78
sg29
g30
sg31
g30
sg32
F108.5
sg33
g30
sg34
F47.5
sbag1
(g16
g3
Ntp846
Rp847
(dp848
g20
F0.9999991655349731
sg21
F355.5
sg22
F138.5
sg23
I-1
sg24
I-1
sg25
I217
sg26
F0.9999978542327881
sg13
I78
sg27
I247
sg28
I416
sg29
g30
sg31
g30
sg32
F455.0
sg33
g30
sg34
F377.0
sbag1
(g16
g3
Ntp849
Rp850
(dp851
g20
F0.9999921321868896
sg21
F350.5
sg22
F185.5
sg23
I-1
sg24
I-1
sg25
I165
sg26
F0.9999915361404419
sg13
I56
sg27
I268
sg28
I36
sg29
g30
sg31
g30
sg32
F64.0
sg33
g30
sg34
F8.0
sbasg56
g9
sg25
I-1
sg57
g9
sbag1
(g2
g3
Ntp852
Rp853
(dp854
g7
I-1
sg8
g9
sg10
I29
sg11
S'TUD-Crossing/frames_tensorbox/000030.jpg'
p855
sg13
I-1
sg14
(lp856
g1
(g16
g3
Ntp857
Rp858
(dp859
g20
F0.9999997615814209
sg21
F377.5
sg22
F152.5
sg23
I-1
sg24
I-1
sg25
I225
sg26
F0.9999997615814209
sg13
I77
sg27
I265
sg28
I242
sg29
g30
sg31
g30
sg32
F280.5
sg33
g30
sg34
F203.5
sbag1
(g16
g3
Ntp860
Rp861
(dp862
g20
F0.9999986886978149
sg21
F325.0
sg22
F163.0
sg23
I-1
sg24
I-1
sg25
I162
sg26
F0.9999986886978149
sg13
I69
sg27
I244
sg28
I601
sg29
g30
sg31
g30
sg32
F635.5
sg33
g30
sg34
F566.5
sbag1
(g16
g3
Ntp863
Rp864
(dp865
g20
F0.9999954700469971
sg21
F361.0
sg22
F183.0
sg23
I-1
sg24
I-1
sg25
I178
sg26
F0.9999954700469971
sg13
I55
sg27
I272
sg28
I39
sg29
g30
sg31
g30
sg32
F66.5
sg33
g30
sg34
F11.5
sbag1
(g16
g3
Ntp866
Rp867
(dp868
g20
F0.8084101676940918
sg21
F350.0
sg22
F150.0
sg23
I-1
sg24
I-1
sg25
I200
sg26
F0.8084101676940918
sg13
I65
sg27
I250
sg28
I447
sg29
g30
sg31
g30
sg32
F479.5
sg33
g30
sg34
F414.5
sbag1
(g16
g3
Ntp869
Rp870
(dp871
g20
F0.999836802482605
sg21
F352.0
sg22
F182.0
sg23
I-1
sg24
I-1
sg25
I170
sg26
F0.999652624130249
sg13
I53
sg27
I267
sg28
I78
sg29
g30
sg31
g30
sg32
F104.5
sg33
g30
sg34
F51.5
sbag1
(g16
g3
Ntp872
Rp873
(dp874
g20
F0.9935992956161499
sg21
F362.0
sg22
F182.0
sg23
I-1
sg24
I-1
sg25
I180
sg26
F0.9904633164405823
sg13
I51
sg27
I272
sg28
I104
sg29
g30
sg31
g30
sg32
F129.5
sg33
g30
sg34
F78.5
sbag1
(g16
g3
Ntp875
Rp876
(dp877
g20
F0.9999994039535522
sg21
F355.5
sg22
F144.5
sg23
I-1
sg24
I-1
sg25
I211
sg26
F0.9999974966049194
sg13
I75
sg27
I250
sg28
I422
sg29
g30
sg31
g30
sg32
F459.5
sg33
g30
sg34
F384.5
sbag1
(g16
g3
Ntp878
Rp879
(dp880
g20
F0.9998835325241089
sg21
F337.0
sg22
F185.0
sg23
I-1
sg24
I-1
sg25
I152
sg26
F0.999869704246521
sg13
I50
sg27
I261
sg28
I342
sg29
g30
sg31
g30
sg32
F367.0
sg33
g30
sg34
F317.0
sbasg56
g9
sg25
I-1
sg57
g9
sbag1
(g2
g3
Ntp881
Rp882
(dp883
g7
I-1
sg8
g9
sg10
I30
sg11
S'TUD-Crossing/frames_tensorbox/000031.jpg'
p884
sg13
I-1
sg14
(lp885
g1
(g16
g3
Ntp886
Rp887
(dp888
g20
F0.9995561242103577
sg21
F369.0
sg22
F163.0
sg23
I-1
sg24
I-1
sg25
I206
sg26
F0.9992009997367859
sg13
I65
sg27
I266
sg28
I63
sg29
g30
sg31
g30
sg32
F95.5
sg33
g30
sg34
F30.5
sbag1
(g16
g3
Ntp889
Rp890
(dp891
g20
F0.9994774460792542
sg21
F352.5
sg22
F173.5
sg23
I-1
sg24
I-1
sg25
I179
sg26
F0.9994233846664429
sg13
I57
sg27
I263
sg28
I94
sg29
g30
sg31
g30
sg32
F122.5
sg33
g30
sg34
F65.5
sbag1
(g16
g3
Ntp892
Rp893
(dp894
g20
F0.9999996423721313
sg21
F359.5
sg22
F164.5
sg23
I-1
sg24
I-1
sg25
I195
sg26
F0.9999990463256836
sg13
I74
sg27
I262
sg28
I246
sg29
g30
sg31
g30
sg32
F283.0
sg33
g30
sg34
F209.0
sbag1
(g16
g3
Ntp895
Rp896
(dp897
g20
F0.9999380111694336
sg21
F332.5
sg22
F185.5
sg23
I-1
sg24
I-1
sg25
I147
sg26
F0.9999183416366577
sg13
I44
sg27
I259
sg28
I349
sg29
g30
sg31
g30
sg32
F371.0
sg33
g30
sg34
F327.0
sbag1
(g16
g3
Ntp898
Rp899
(dp900
g20
F0.9999988079071045
sg21
F349.0
sg22
F167.0
sg23
I-1
sg24
I-1
sg25
I182
sg26
F0.9999982118606567
sg13
I69
sg27
I258
sg28
I428
sg29
g30
sg31
g30
sg32
F462.5
sg33
g30
sg34
F393.5
sbag1
(g16
g3
Ntp901
Rp902
(dp903
g20
F0.9999978542327881
sg21
F328.0
sg22
F158.0
sg23
I-1
sg24
I-1
sg25
I170
sg26
F0.999997615814209
sg13
I65
sg27
I243
sg28
I603
sg29
g30
sg31
g30
sg32
F635.5
sg33
g30
sg34
F570.5
sbag1
(g16
g3
Ntp904
Rp905
(dp906
g20
F0.9997438788414001
sg21
F362.5
sg22
F159.5
sg23
I-1
sg24
I-1
sg25
I203
sg26
F0.9996241331100464
sg13
I60
sg27
I261
sg28
I612
sg29
g30
sg31
g30
sg32
F642.0
sg33
g30
sg34
F582.0
sbasg56
g9
sg25
I-1
sg57
g9
sbag1
(g2
g3
Ntp907
Rp908
(dp909
g7
I-1
sg8
g9
sg10
I31
sg11
S'TUD-Crossing/frames_tensorbox/000032.jpg'
p910
sg13
I-1
sg14
(lp911
g1
(g16
g3
Ntp912
Rp913
(dp914
g20
F0.9999995231628418
sg21
F380.5
sg22
F163.5
sg23
I-1
sg24
I-1
sg25
I217
sg26
F0.9997757077217102
sg13
I71
sg27
I272
sg28
I50
sg29
g30
sg31
g30
sg32
F85.5
sg33
g30
sg34
F14.5
sbag1
(g16
g3
Ntp915
Rp916
(dp917
g20
F0.9997575879096985
sg21
F366.0
sg22
F160.0
sg23
I-1
sg24
I-1
sg25
I206
sg26
F0.9657937288284302
sg13
I63
sg27
I263
sg28
I614
sg29
g30
sg31
g30
sg32
F645.5
sg33
g30
sg34
F582.5
sbag1
(g16
g3
Ntp918
Rp919
(dp920
g20
F0.9997707009315491
sg21
F350.5
sg22
F167.5
sg23
I-1
sg24
I-1
sg25
I183
sg26
F0.9996446371078491
sg13
I63
sg27
I259
sg28
I95
sg29
g30
sg31
g30
sg32
F126.5
sg33
g30
sg34
F63.5
sbag1
(g16
g3
Ntp921
Rp922
(dp923
g20
F0.9999990463256836
sg21
F350.0
sg22
F172.0
sg23
I-1
sg24
I-1
sg25
I178
sg26
F0.9999978542327881
sg13
I66
sg27
I261
sg28
I249
sg29
g30
sg31
g30
sg32
F282.0
sg33
g30
sg34
F216.0
sbag1
(g16
g3
Ntp924
Rp925
(dp926
g20
F0.999941349029541
sg21
F328.0
sg22
F182.0
sg23
I-1
sg24
I-1
sg25
I146
sg26
F0.9999054670333862
sg13
I46
sg27
I255
sg28
I353
sg29
g30
sg31
g30
sg32
F376.0
sg33
g30
sg34
F330.0
sbag1
(g16
g3
Ntp927
Rp928
(dp929
g20
F0.999998927116394
sg21
F356.5
sg22
F155.5
sg23
I-1
sg24
I-1
sg25
I201
sg26
F0.9999986886978149
sg13
I71
sg27
I256
sg28
I426
sg29
g30
sg31
g30
sg32
F461.5
sg33
g30
sg34
F390.5
sbag1
(g16
g3
Ntp930
Rp931
(dp932
g20
F0.9999961853027344
sg21
F352.5
sg22
F165.5
sg23
I-1
sg24
I-1
sg25
I187
sg26
F0.9999940395355225
sg13
I62
sg27
I259
sg28
I612
sg29
g30
sg31
g30
sg32
F643.0
sg33
g30
sg34
F581.0
sbag1
(g16
g3
Ntp933
Rp934
(dp935
g20
F0.9999721050262451
sg21
F341.0
sg22
F159.0
sg23
I-1
sg24
I-1
sg25
I182
sg26
F0.9999721050262451
sg13
I63
sg27
I250
sg28
I434
sg29
g30
sg31
g30
sg32
F465.5
sg33
g30
sg34
F402.5
sbasg56
g9
sg25
I-1
sg57
g9
sbag1
(g2
g3
Ntp936
Rp937
(dp938
g7
I-1
sg8
g9
sg10
I32
sg11
S'TUD-Crossing/frames_tensorbox/000033.jpg'
p939
sg13
I-1
sg14
(lp940
g1
(g16
g3
Ntp941
Rp942
(dp943
g20
F0.9999940395355225
sg21
F324.0
sg22
F172.0
sg23
I-1
sg24
I-1
sg25
I152
sg26
F0.9999940395355225
sg13
I53
sg27
I248
sg28
I243
sg29
g30
sg31
g30
sg32
F269.5
sg33
g30
sg34
F216.5
sbag1
(g16
g3
Ntp944
Rp945
(dp946
g20
F0.9986100196838379
sg21
F359.5
sg22
F154.5
sg23
I-1
sg24
I-1
sg25
I205
sg26
F0.9986100196838379
sg13
I64
sg27
I257
sg28
I384
sg29
g30
sg31
g30
sg32
F416.0
sg33
g30
sg34
F352.0
sbag1
(g16
g3
Ntp947
Rp948
(dp949
g20
F0.9999994039535522
sg21
F375.5
sg22
F166.5
sg23
I-1
sg24
I-1
sg25
I209
sg26
F0.9974615573883057
sg13
I68
sg27
I271
sg28
I50
sg29
g30
sg31
g30
sg32
F84.0
sg33
g30
sg34
F16.0
sbag1
(g16
g3
Ntp950
Rp951
(dp952
g20
F0.8902199864387512
sg21
F357.0
sg22
F181.0
sg23
I-1
sg24
I-1
sg25
I176
sg26
F0.8902199864387512
sg13
I58
sg27
I269
sg28
I79
sg29
g30
sg31
g30
sg32
F108.0
sg33
g30
sg34
F50.0
sbag1
(g16
g3
Ntp953
Rp954
(dp955
g20
F0.9999884366989136
sg21
F349.5
sg22
F162.5
sg23
I-1
sg24
I-1
sg25
I187
sg26
F0.9988324046134949
sg13
I61
sg27
I256
sg28
I620
sg29
g30
sg31
g30
sg32
F650.5
sg33
g30
sg34
F589.5
sbag1
(g16
g3
Ntp956
Rp957
(dp958
g20
F0.999962568283081
sg21
F333.5
sg22
F186.5
sg23
I-1
sg24
I-1
sg25
I147
sg26
F0.999941349029541
sg13
I49
sg27
I260
sg28
I357
sg29
g30
sg31
g30
sg32
F381.5
sg33
g30
sg34
F332.5
sbag1
(g16
g3
Ntp959
Rp960
(dp961
g20
F0.9999961853027344
sg21
F366.0
sg22
F154.0
sg23
I-1
sg24
I-1
sg25
I212
sg26
F0.9999949932098389
sg13
I79
sg27
I260
sg28
I437
sg29
g30
sg31
g30
sg32
F476.5
sg33
g30
sg34
F397.5
sbag1
(g16
g3
Ntp962
Rp963
(dp964
g20
F0.6960643529891968
sg21
F322.5
sg22
F183.5
sg23
I-1
sg24
I-1
sg25
I139
sg26
F0.6960643529891968
sg13
I31
sg27
I253
sg28
I609
sg29
g30
sg31
g30
sg32
F624.5
sg33
g30
sg34
F593.5
sbag1
(g16
g3
Ntp965
Rp966
(dp967
g20
F0.9999898672103882
sg21
F347.5
sg22
F160.5
sg23
I-1
sg24
I-1
sg25
I187
sg26
F0.9999898672103882
sg13
I67
sg27
I254
sg28
I438
sg29
g30
sg31
g30
sg32
F471.5
sg33
g30
sg34
F404.5
sbasg56
g9
sg25
I-1
sg57
g9
sbag1
(g2
g3
Ntp968
Rp969
(dp970
g7
I-1
sg8
g9
sg10
I33
sg11
S'TUD-Crossing/frames_tensorbox/000034.jpg'
p971
sg13
I-1
sg14
(lp972
g1
(g16
g3
Ntp973
Rp974
(dp975
g20
F0.9999886751174927
sg21
F324.5
sg22
F171.5
sg23
I-1
sg24
I-1
sg25
I153
sg26
F0.9999886751174927
sg13
I52
sg27
I248
sg28
I244
sg29
g30
sg31
g30
sg32
F270.0
sg33
g30
sg34
F218.0
sbag1
(g16
g3
Ntp976
Rp977
(dp978
g20
F0.9999974966049194
sg21
F358.0
sg22
F178.0
sg23
I-1
sg24
I-1
sg25
I180
sg26
F0.9999692440032959
sg13
I58
sg27
I268
sg28
I46
sg29
g30
sg31
g30
sg32
F75.0
sg33
g30
sg34
F17.0
sbag1
(g16
g3
Ntp979
Rp980
(dp981
g20
F0.999756395816803
sg21
F318.0
sg22
F174.0
sg23
I-1
sg24
I-1
sg25
I144
sg26
F0.9984532594680786
sg13
I44
sg27
I246
sg28
I345
sg29
g30
sg31
g30
sg32
F367.0
sg33
g30
sg34
F323.0
sbag1
(g16
g3
Ntp982
Rp983
(dp984
g20
F0.999998927116394
sg21
F361.5
sg22
F152.5
sg23
I-1
sg24
I-1
sg25
I209
sg26
F0.9999983310699463
sg13
I78
sg27
I257
sg28
I447
sg29
g30
sg31
g30
sg32
F486.0
sg33
g30
sg34
F408.0
sbag1
(g16
g3
Ntp985
Rp986
(dp987
g20
F0.9999945163726807
sg21
F351.0
sg22
F159.0
sg23
I-1
sg24
I-1
sg25
I192
sg26
F0.9999924898147583
sg13
I60
sg27
I255
sg28
I614
sg29
g30
sg31
g30
sg32
F644.0
sg33
g30
sg34
F584.0
sbag1
(g16
g3
Ntp988
Rp989
(dp990
g20
F0.9998878240585327
sg21
F351.5
sg22
F168.5
sg23
I-1
sg24
I-1
sg25
I183
sg26
F0.9998584985733032
sg13
I65
sg27
I260
sg28
I103
sg29
g30
sg31
g30
sg32
F135.5
sg33
g30
sg34
F70.5
sbag1
(g16
g3
Ntp991
Rp992
(dp993
g20
F0.9981924891471863
sg21
F334.5
sg22
F181.5
sg23
I-1
sg24
I-1
sg25
I153
sg26
F0.9696402549743652
sg13
I52
sg27
I258
sg28
I373
sg29
g30
sg31
g30
sg32
F399.0
sg33
g30
sg34
F347.0
sbasg56
g9
sg25
I-1
sg57
g9
sbag1
(g2
g3
Ntp994
Rp995
(dp996
g7
I-1
sg8
g9
sg10
I34
sg11
S'TUD-Crossing/frames_tensorbox/000035.jpg'
p997
sg13
I-1
sg14
(lp998
g1
(g16
g3
Ntp999
Rp1000
(dp1001
g20
F0.9999922513961792
sg21
F353.0
sg22
F183.0
sg23
I-1
sg24
I-1
sg25
I170
sg26
F0.9996898174285889
sg13
I54
sg27
I268
sg28
I44
sg29
g30
sg31
g30
sg32
F71.0
sg33
g30
sg34
F17.0
sbag1
(g16
g3
Ntp1002
Rp1003
(dp1004
g20
F0.997560977935791
sg21
F352.0
sg22
F176.0
sg23
I-1
sg24
I-1
sg25
I176
sg26
F0.997560977935791
sg13
I60
sg27
I264
sg28
I130
sg29
g30
sg31
g30
sg32
F160.0
sg33
g30
sg34
F100.0
sbag1
(g16
g3
Ntp1005
Rp1006
(dp1007
g20
F0.9998487234115601
sg21
F320.5
sg22
F173.5
sg23
I-1
sg24
I-1
sg25
I147
sg26
F0.9993368983268738
sg13
I49
sg27
I247
sg28
I371
sg29
g30
sg31
g30
sg32
F395.5
sg33
g30
sg34
F346.5
sbag1
(g16
g3
Ntp1008
Rp1009
(dp1010
g20
F0.9999967813491821
sg21
F351.0
sg22
F149.0
sg23
I-1
sg24
I-1
sg25
I202
sg26
F0.9999951124191284
sg13
I64
sg27
I250
sg28
I611
sg29
g30
sg31
g30
sg32
F643.0
sg33
g30
sg34
F579.0
sbag1
(g16
g3
Ntp1011
Rp1012
(dp1013
g20
F0.999925971031189
sg21
F361.5
sg22
F158.5
sg23
I-1
sg24
I-1
sg25
I203
sg26
F0.9998334646224976
sg13
I71
sg27
I260
sg28
I102
sg29
g30
sg31
g30
sg32
F137.5
sg33
g30
sg34
F66.5
sbag1
(g16
g3
Ntp1014
Rp1015
(dp1016
g20
F0.9997915625572205
sg21
F321.5
sg22
F176.5
sg23
I-1
sg24
I-1
sg25
I145
sg26
F0.999738872051239
sg13
I48
sg27
I249
sg28
I338
sg29
g30
sg31
g30
sg32
F362.0
sg33
g30
sg34
F314.0
sbag1
(g16
g3
Ntp1017
Rp1018
(dp1019
g20
F0.9999996423721313
sg21
F364.0
sg22
F144.0
sg23
I-1
sg24
I-1
sg25
I220
sg26
F0.9999990463256836
sg13
I79
sg27
I254
sg28
I453
sg29
g30
sg31
g30
sg32
F492.5
sg33
g30
sg34
F413.5
sbag1
(g16
g3
Ntp1020
Rp1021
(dp1022
g20
F0.999997615814209
sg21
F343.5
sg22
F176.5
sg23
I-1
sg24
I-1
sg25
I167
sg26
F0.9999939203262329
sg13
I65
sg27
I260
sg28
I269
sg29
g30
sg31
g30
sg32
F301.5
sg33
g30
sg34
F236.5
sbag1
(g16
g3
Ntp1023
Rp1024
(dp1025
g20
F0.6760072112083435
sg21
F338.5
sg22
F179.5
sg23
I-1
sg24
I-1
sg25
I159
sg26
F0.6760072112083435
sg13
I52
sg27
I259
sg28
I294
sg29
g30
sg31
g30
sg32
F320.0
sg33
g30
sg34
F268.0
sbasg56
g9
sg25
I-1
sg57
g9
sbag1
(g2
g3
Ntp1026
Rp1027
(dp1028
g7
I-1
sg8
g9
sg10
I35
sg11
S'TUD-Crossing/frames_tensorbox/000036.jpg'
p1029
sg13
I-1
sg14
(lp1030
g1
(g16
g3
Ntp1031
Rp1032
(dp1033
g20
F0.9432472586631775
sg21
F335.5
sg22
F180.5
sg23
I-1
sg24
I-1
sg25
I155
sg26
F0.9432472586631775
sg13
I52
sg27
I258
sg28
I296
sg29
g30
sg31
g30
sg32
F322.0
sg33
g30
sg34
F270.0
sbag1
(g16
g3
Ntp1034
Rp1035
(dp1036
g20
F0.9999449253082275
sg21
F322.0
sg22
F170.0
sg23
I-1
sg24
I-1
sg25
I152
sg26
F0.999915361404419
sg13
I48
sg27
I246
sg28
I378
sg29
g30
sg31
g30
sg32
F402.0
sg33
g30
sg34
F354.0
sbag1
(g16
g3
Ntp1037
Rp1038
(dp1039
g20
F1.0
sg21
F382.5
sg22
F135.5
sg23
I-1
sg24
I-1
sg25
I247
sg26
F1.0
sg13
I87
sg27
I259
sg28
I609
sg29
g30
sg31
g30
sg32
F652.5
sg33
g30
sg34
F565.5
sbag1
(g16
g3
Ntp1040
Rp1041
(dp1042
g20
F0.9999905824661255
sg21
F348.0
sg22
F184.0
sg23
I-1
sg24
I-1
sg25
I164
sg26
F0.9999575614929199
sg13
I54
sg27
I266
sg28
I43
sg29
g30
sg31
g30
sg32
F70.0
sg33
g30
sg34
F16.0
sbag1
(g16
g3
Ntp1043
Rp1044
(dp1045
g20
F0.9999994039535522
sg21
F353.0
sg22
F151.0
sg23
I-1
sg24
I-1
sg25
I202
sg26
F0.9999977350234985
sg13
I72
sg27
I252
sg28
I460
sg29
g30
sg31
g30
sg32
F496.0
sg33
g30
sg34
F424.0
sbag1
(g16
g3
Ntp1046
Rp1047
(dp1048
g20
F0.9997387528419495
sg21
F345.5
sg22
F162.5
sg23
I-1
sg24
I-1
sg25
I183
sg26
F0.9994381070137024
sg13
I61
sg27
I254
sg28
I108
sg29
g30
sg31
g30
sg32
F138.5
sg33
g30
sg34
F77.5
sbag1
(g16
g3
Ntp1049
Rp1050
(dp1051
g20
F0.999903678894043
sg21
F352.0
sg22
F156.0
sg23
I-1
sg24
I-1
sg25
I196
sg26
F0.9998701810836792
sg13
I71
sg27
I254
sg28
I101
sg29
g30
sg31
g30
sg32
F136.5
sg33
g30
sg34
F65.5
sbag1
(g16
g3
Ntp1052
Rp1053
(dp1054
g20
F0.9999974966049194
sg21
F348.5
sg22
F175.5
sg23
I-1
sg24
I-1
sg25
I173
sg26
F0.99998939037323
sg13
I66
sg27
I262
sg28
I273
sg29
g30
sg31
g30
sg32
F306.0
sg33
g30
sg34
F240.0
sbasg56
g9
sg25
I-1
sg57
g9
sbag1
(g2
g3
Ntp1055
Rp1056
(dp1057
g7
I-1
sg8
g9
sg10
I36
sg11
S'TUD-Crossing/frames_tensorbox/000037.jpg'
p1058
sg13
I-1
sg14
(lp1059
g1
(g16
g3
Ntp1060
Rp1061
(dp1062
g20
F0.9999692440032959
sg21
F319.0
sg22
F175.0
sg23
I-1
sg24
I-1
sg25
I144
sg26
F0.9999606609344482
sg13
I46
sg27
I247
sg28
I266
sg29
g30
sg31
g30
sg32
F289.0
sg33
g30
sg34
F243.0
sbag1
(g16
g3
Ntp1063
Rp1064
(dp1065
g20
F0.9999700784683228
sg21
F321.5
sg22
F168.5
sg23
I-1
sg24
I-1
sg25
I153
sg26
F0.9999516010284424
sg13
I48
sg27
I245
sg28
I384
sg29
g30
sg31
g30
sg32
F408.0
sg33
g30
sg34
F360.0
sbag1
(g16
g3
Ntp1066
Rp1067
(dp1068
g20
F0.9999998807907104
sg21
F373.5
sg22
F140.5
sg23
I-1
sg24
I-1
sg25
I233
sg26
F0.9999233484268188
sg13
I84
sg27
I257
sg28
I601
sg29
g30
sg31
g30
sg32
F643.0
sg33
g30
sg34
F559.0
sbag1
(g16
g3
Ntp1069
Rp1070
(dp1071
g20
F0.999991774559021
sg21
F351.5
sg22
F182.5
sg23
I-1
sg24
I-1
sg25
I169
sg26
F0.9999727010726929
sg13
I56
sg27
I267
sg28
I43
sg29
g30
sg31
g30
sg32
F71.0
sg33
g30
sg34
F15.0
sbag1
(g16
g3
Ntp1072
Rp1073
(dp1074
g20
F0.9993359446525574
sg21
F355.0
sg22
F163.0
sg23
I-1
sg24
I-1
sg25
I192
sg26
F0.9992839694023132
sg13
I65
sg27
I259
sg28
I136
sg29
g30
sg31
g30
sg32
F168.5
sg33
g30
sg34
F103.5
sbag1
(g16
g3
Ntp1075
Rp1076
(dp1077
g20
F0.9999997615814209
sg21
F361.5
sg22
F144.5
sg23
I-1
sg24
I-1
sg25
I217
sg26
F0.9999992847442627
sg13
I79
sg27
I253
sg28
I463
sg29
g30
sg31
g30
sg32
F502.5
sg33
g30
sg34
F423.5
sbag1
(g16
g3
Ntp1078
Rp1079
(dp1080
g20
F0.9999374151229858
sg21
F351.5
sg22
F158.5
sg23
I-1
sg24
I-1
sg25
I193
sg26
F0.9997231364250183
sg13
I73
sg27
I255
sg28
I102
sg29
g30
sg31
g30
sg32
F138.5
sg33
g30
sg34
F65.5
sbasg56
g9
sg25
I-1
sg57
g9
sbag1
(g2
g3
Ntp1081
Rp1082
(dp1083
g7
I-1
sg8
g9
sg10
I37
sg11
S'TUD-Crossing/frames_tensorbox/000038.jpg'
p1084
sg13
I-1
sg14
(lp1085
g1
(g16
g3
Ntp1086
Rp1087
(dp1088
g20
F0.9999972581863403
sg21
F357.0
sg22
F179.0
sg23
I-1
sg24
I-1
sg25
I178
sg26
F0.9940695762634277
sg13
I60
sg27
I268
sg28
I52
sg29
g30
sg31
g30
sg32
F82.0
sg33
g30
sg34
F22.0
sbag1
(g16
g3
Ntp1089
Rp1090
(dp1091
g20
F0.9988921284675598
sg21
F367.0
sg22
F153.0
sg23
I-1
sg24
I-1
sg25
I214
sg26
F0.9979060888290405
sg13
I68
sg27
I260
sg28
I139
sg29
g30
sg31
g30
sg32
F173.0
sg33
g30
sg34
F105.0
sbag1
(g16
g3
Ntp1092
Rp1093
(dp1094
g20
F0.9999676942825317
sg21
F318.5
sg22
F171.5
sg23
I-1
sg24
I-1
sg25
I147
sg26
F0.9999613761901855
sg13
I47
sg27
I245
sg28
I269
sg29
g30
sg31
g30
sg32
F292.5
sg33
g30
sg34
F245.5
sbag1
(g16
g3
Ntp1095
Rp1096
(dp1097
g20
F0.8959988355636597
sg21
F326.0
sg22
F174.0
sg23
I-1
sg24
I-1
sg25
I152
sg26
F0.8959988355636597
sg13
I47
sg27
I250
sg28
I301
sg29
g30
sg31
g30
sg32
F324.5
sg33
g30
sg34
F277.5
sbag1
(g16
g3
Ntp1098
Rp1099
(dp1100
g20
F0.999981164932251
sg21
F322.0
sg22
F166.0
sg23
I-1
sg24
I-1
sg25
I156
sg26
F0.9999744892120361
sg13
I53
sg27
I244
sg28
I388
sg29
g30
sg31
g30
sg32
F414.5
sg33
g30
sg34
F361.5
sbag1
(g16
g3
Ntp1101
Rp1102
(dp1103
g20
F0.9999997615814209
sg21
F368.5
sg22
F149.5
sg23
I-1
sg24
I-1
sg25
I219
sg26
F0.9999736547470093
sg13
I77
sg27
I259
sg28
I591
sg29
g30
sg31
g30
sg32
F629.5
sg33
g30
sg34
F552.5
sbag1
(g16
g3
Ntp1104
Rp1105
(dp1106
g20
F0.9999699592590332
sg21
F358.5
sg22
F149.5
sg23
I-1
sg24
I-1
sg25
I209
sg26
F0.9998935461044312
sg13
I74
sg27
I254
sg28
I108
sg29
g30
sg31
g30
sg32
F145.0
sg33
g30
sg34
F71.0
sbag1
(g16
g3
Ntp1107
Rp1108
(dp1109
g20
F0.9999977350234985
sg21
F355.5
sg22
F146.5
sg23
I-1
sg24
I-1
sg25
I209
sg26
F0.9999961853027344
sg13
I73
sg27
I251
sg28
I474
sg29
g30
sg31
g30
sg32
F510.5
sg33
g30
sg34
F437.5
sbag1
(g16
g3
Ntp1110
Rp1111
(dp1112
g20
F0.9999649524688721
sg21
F356.5
sg22
F165.5
sg23
I-1
sg24
I-1
sg25
I191
sg26
F0.9923403263092041
sg13
I64
sg27
I261
sg28
I593
sg29
g30
sg31
g30
sg32
F625.0
sg33
g30
sg34
F561.0
sbag1
(g16
g3
Ntp1113
Rp1114
(dp1115
g20
F0.8417375087738037
sg21
F344.5
sg22
F175.5
sg23
I-1
sg24
I-1
sg25
I169
sg26
F0.8417375087738037
sg13
I42
sg27
I260
sg28
I624
sg29
g30
sg31
g30
sg32
F645.0
sg33
g30
sg34
F603.0
sbasg56
g9
sg25
I-1
sg57
g9
sbag1
(g2
g3
Ntp1116
Rp1117
(dp1118
g7
I-1
sg8
g9
sg10
I38
sg11
S'TUD-Crossing/frames_tensorbox/000039.jpg'
p1119
sg13
I-1
sg14
(lp1120
g1
(g16
g3
Ntp1121
Rp1122
(dp1123
g20
F0.9999946355819702
sg21
F340.5
sg22
F155.5
sg23
I-1
sg24
I-1
sg25
I185
sg26
F0.9999946355819702
sg13
I63
sg27
I248
sg28
I397
sg29
g30
sg31
g30
sg32
F428.5
sg33
g30
sg34
F365.5
sbag1
(g16
g3
Ntp1124
Rp1125
(dp1126
g20
F0.9999973773956299
sg21
F356.5
sg22
F173.5
sg23
I-1
sg24
I-1
sg25
I183
sg26
F0.9942739605903625
sg13
I61
sg27
I265
sg28
I52
sg29
g30
sg31
g30
sg32
F82.5
sg33
g30
sg34
F21.5
sbag1
(g16
g3
Ntp1127
Rp1128
(dp1129
g20
F0.9999755620956421
sg21
F322.0
sg22
F170.0
sg23
I-1
sg24
I-1
sg25
I152
sg26
F0.9999723434448242
sg13
I49
sg27
I246
sg28
I274
sg29
g30
sg31
g30
sg32
F298.5
sg33
g30
sg34
F249.5
sbag1
(g16
g3
Ntp1130
Rp1131
(dp1132
g20
F0.9999380111694336
sg21
F364.0
sg22
F148.0
sg23
I-1
sg24
I-1
sg25
I216
sg26
F0.9988202452659607
sg13
I70
sg27
I256
sg28
I135
sg29
g30
sg31
g30
sg32
F170.0
sg33
g30
sg34
F100.0
sbag1
(g16
g3
Ntp1133
Rp1134
(dp1135
g20
F0.9999971389770508
sg21
F348.0
sg22
F156.0
sg23
I-1
sg24
I-1
sg25
I192
sg26
F0.999992847442627
sg13
I69
sg27
I252
sg28
I480
sg29
g30
sg31
g30
sg32
F514.5
sg33
g30
sg34
F445.5
sbag1
(g16
g3
Ntp1136
Rp1137
(dp1138
g20
F0.9999990463256836
sg21
F353.5
sg22
F158.5
sg23
I-1
sg24
I-1
sg25
I195
sg26
F0.9999984502792358
sg13
I72
sg27
I256
sg28
I584
sg29
g30
sg31
g30
sg32
F620.0
sg33
g30
sg34
F548.0
sbag1
(g16
g3
Ntp1139
Rp1140
(dp1141
g20
F0.9998631477355957
sg21
F350.0
sg22
F162.0
sg23
I-1
sg24
I-1
sg25
I188
sg26
F0.9998072981834412
sg13
I65
sg27
I256
sg28
I103
sg29
g30
sg31
g30
sg32
F135.5
sg33
g30
sg34
F70.5
sbag1
(g16
g3
Ntp1142
Rp1143
(dp1144
g20
F0.9639118909835815
sg21
F340.0
sg22
F186.0
sg23
I-1
sg24
I-1
sg25
I154
sg26
F0.9530712366104126
sg13
I57
sg27
I263
sg28
I299
sg29
g30
sg31
g30
sg32
F327.5
sg33
g30
sg34
F270.5
sbag1
(g16
g3
Ntp1145
Rp1146
(dp1147
g20
F0.954240620136261
sg21
F344.0
sg22
F180.0
sg23
I-1
sg24
I-1
sg25
I164
sg26
F0.954240620136261
sg13
I44
sg27
I262
sg28
I591
sg29
g30
sg31
g30
sg32
F613.0
sg33
g30
sg34
F569.0
sbasg56
g9
sg25
I-1
sg57
g9
sbag1
(g2
g3
Ntp1148
Rp1149
(dp1150
g7
I-1
sg8
g9
sg10
I39
sg11
S'TUD-Crossing/frames_tensorbox/000040.jpg'
p1151
sg13
I-1
sg14
(lp1152
g1
(g16
g3
Ntp1153
Rp1154
(dp1155
g20
F0.9998093247413635
sg21
F356.0
sg22
F178.0
sg23
I-1
sg24
I-1
sg25
I178
sg26
F0.9998093247413635
sg13
I61
sg27
I267
sg28
I71
sg29
g30
sg31
g30
sg32
F101.5
sg33
g30
sg34
F40.5
sbag1
(g16
g3
Ntp1156
Rp1157
(dp1158
g20
F0.9999978542327881
sg21
F346.5
sg22
F147.5
sg23
I-1
sg24
I-1
sg25
I199
sg26
F0.9999978542327881
sg13
I69
sg27
I247
sg28
I492
sg29
g30
sg31
g30
sg32
F526.5
sg33
g30
sg34
F457.5
sbag1
(g16
g3
Ntp1159
Rp1160
(dp1161
g20
F0.9999681711196899
sg21
F320.0
sg22
F170.0
sg23
I-1
sg24
I-1
sg25
I150
sg26
F0.9999618530273438
sg13
I47
sg27
I245
sg28
I274
sg29
g30
sg31
g30
sg32
F297.5
sg33
g30
sg34
F250.5
sbag1
(g16
g3
Ntp1162
Rp1163
(dp1164
g20
F0.9942172765731812
sg21
F319.0
sg22
F181.0
sg23
I-1
sg24
I-1
sg25
I138
sg26
F0.9942172765731812
sg13
I44
sg27
I250
sg28
I319
sg29
g30
sg31
g30
sg32
F341.0
sg33
g30
sg34
F297.0
sbag1
(g16
g3
Ntp1165
Rp1166
(dp1167
g20
F0.9951272010803223
sg21
F365.0
sg22
F151.0
sg23
I-1
sg24
I-1
sg25
I214
sg26
F0.9951272010803223
sg13
I67
sg27
I258
sg28
I500
sg29
g30
sg31
g30
sg32
F533.5
sg33
g30
sg34
F466.5
sbag1
(g16
g3
Ntp1168
Rp1169
(dp1170
g20
F0.8836121559143066
sg21
F358.5
sg22
F171.5
sg23
I-1
sg24
I-1
sg25
I187
sg26
F0.8836121559143066
sg13
I57
sg27
I265
sg28
I592
sg29
g30
sg31
g30
sg32
F620.5
sg33
g30
sg34
F563.5
sbag1
(g16
g3
Ntp1171
Rp1172
(dp1173
g20
F0.9999525547027588
sg21
F360.5
sg22
F153.5
sg23
I-1
sg24
I-1
sg25
I207
sg26
F0.9973529577255249
sg13
I68
sg27
I257
sg28
I139
sg29
g30
sg31
g30
sg32
F173.0
sg33
g30
sg34
F105.0
sbag1
(g16
g3
Ntp1174
Rp1175
(dp1176
g20
F0.9999916553497314
sg21
F330.5
sg22
F171.5
sg23
I-1
sg24
I-1
sg25
I159
sg26
F0.9999836683273315
sg13
I55
sg27
I251
sg28
I400
sg29
g30
sg31
g30
sg32
F427.5
sg33
g30
sg34
F372.5
sbag1
(g16
g3
Ntp1177
Rp1178
(dp1179
g20
F0.9999990463256836
sg21
F358.0
sg22
F156.0
sg23
I-1
sg24
I-1
sg25
I202
sg26
F0.9999980926513672
sg13
I75
sg27
I257
sg28
I578
sg29
g30
sg31
g30
sg32
F615.5
sg33
g30
sg34
F540.5
sbag1
(g16
g3
Ntp1180
Rp1181
(dp1182
g20
F0.9998996257781982
sg21
F347.5
sg22
F166.5
sg23
I-1
sg24
I-1
sg25
I181
sg26
F0.9998672008514404
sg13
I65
sg27
I257
sg28
I105
sg29
g30
sg31
g30
sg32
F137.5
sg33
g30
sg34
F72.5
sbasg56
g9
sg25
I-1
sg57
g9
sbag1
(g2
g3
Ntp1183
Rp1184
(dp1185
g7
I-1
sg8
g9
sg10
I40
sg11
S'TUD-Crossing/frames_tensorbox/000041.jpg'
p1186
sg13
I-1
sg14
(lp1187
g1
(g16
g3
Ntp1188
Rp1189
(dp1190
g20
F0.9998959302902222
sg21
F343.5
sg22
F172.5
sg23
I-1
sg24
I-1
sg25
I171
sg26
F0.9998959302902222
sg13
I58
sg27
I258
sg28
I108
sg29
g30
sg31
g30
sg32
F137.0
sg33
g30
sg34
F79.0
sbag1
(g16
g3
Ntp1191
Rp1192
(dp1193
g20
F0.999984622001648
sg21
F326.5
sg22
F169.5
sg23
I-1
sg24
I-1
sg25
I157
sg26
F0.999984622001648
sg13
I52
sg27
I248
sg28
I275
sg29
g30
sg31
g30
sg32
F301.0
sg33
g30
sg34
F249.0
sbag1
(g16
g3
Ntp1194
Rp1195
(dp1196
g20
F0.9992828965187073
sg21
F342.5
sg22
F183.5
sg23
I-1
sg24
I-1
sg25
I159
sg26
F0.9990087151527405
sg13
I53
sg27
I263
sg28
I70
sg29
g30
sg31
g30
sg32
F96.5
sg33
g30
sg34
F43.5
sbag1
(g16
g3
Ntp1197
Rp1198
(dp1199
g20
F0.9976860284805298
sg21
F320.0
sg22
F180.0
sg23
I-1
sg24
I-1
sg25
I140
sg26
F0.9944473505020142
sg13
I45
sg27
I250
sg28
I316
sg29
g30
sg31
g30
sg32
F338.5
sg33
g30
sg34
F293.5
sbag1
(g16
g3
Ntp1200
Rp1201
(dp1202
g20
F0.9999665021896362
sg21
F329.5
sg22
F164.5
sg23
I-1
sg24
I-1
sg25
I165
sg26
F0.9996203184127808
sg13
I54
sg27
I247
sg28
I408
sg29
g30
sg31
g30
sg32
F435.0
sg33
g30
sg34
F381.0
sbag1
(g16
g3
Ntp1203
Rp1204
(dp1205
g20
F0.9999985694885254
sg21
F345.5
sg22
F148.5
sg23
I-1
sg24
I-1
sg25
I197
sg26
F0.9999947547912598
sg13
I67
sg27
I247
sg28
I493
sg29
g30
sg31
g30
sg32
F526.5
sg33
g30
sg34
F459.5
sbag1
(g16
g3
Ntp1206
Rp1207
(dp1208
g20
F0.9999990463256836
sg21
F371.5
sg22
F148.5
sg23
I-1
sg24
I-1
sg25
I223
sg26
F0.9999985694885254
sg13
I84
sg27
I260
sg28
I568
sg29
g30
sg31
g30
sg32
F610.0
sg33
g30
sg34
F526.0
sbag1
(g16
g3
Ntp1209
Rp1210
(dp1211
g20
F0.9979948997497559
sg21
F348.5
sg22
F175.5
sg23
I-1
sg24
I-1
sg25
I173
sg26
F0.9965550899505615
sg13
I53
sg27
I262
sg28
I148
sg29
g30
sg31
g30
sg32
F174.5
sg33
g30
sg34
F121.5
sbasg56
g9
sg25
I-1
sg57
g9
sbag1
(g2
g3
Ntp1212
Rp1213
(dp1214
g7
I-1
sg8
g9
sg10
I41
sg11
S'TUD-Crossing/frames_tensorbox/000042.jpg'
p1215
sg13
I-1
sg14
(lp1216
g1
(g16
g3
Ntp1217
Rp1218
(dp1219
g20
F0.999380350112915
sg21
F347.0
sg22
F181.0
sg23
I-1
sg24
I-1
sg25
I166
sg26
F0.999380350112915
sg13
I52
sg27
I264
sg28
I73
sg29
g30
sg31
g30
sg32
F99.0
sg33
g30
sg34
F47.0
sbag1
(g16
g3
Ntp1220
Rp1221
(dp1222
g20
F0.9998793601989746
sg21
F323.5
sg22
F166.5
sg23
I-1
sg24
I-1
sg25
I157
sg26
F0.9998793601989746
sg13
I48
sg27
I245
sg28
I274
sg29
g30
sg31
g30
sg32
F298.0
sg33
g30
sg34
F250.0
sbag1
(g16
g3
Ntp1223
Rp1224
(dp1225
g20
F0.9986675977706909
sg21
F351.5
sg22
F168.5
sg23
I-1
sg24
I-1
sg25
I183
sg26
F0.9986675977706909
sg13
I60
sg27
I260
sg28
I160
sg29
g30
sg31
g30
sg32
F190.0
sg33
g30
sg34
F130.0
sbag1
(g16
g3
Ntp1226
Rp1227
(dp1228
g20
F0.9999817609786987
sg21
F353.5
sg22
F166.5
sg23
I-1
sg24
I-1
sg25
I187
sg26
F0.9999790191650391
sg13
I65
sg27
I260
sg28
I115
sg29
g30
sg31
g30
sg32
F147.5
sg33
g30
sg34
F82.5
sbag1
(g16
g3
Ntp1229
Rp1230
(dp1231
g20
F0.9999808073043823
sg21
F332.0
sg22
F172.0
sg23
I-1
sg24
I-1
sg25
I160
sg26
F0.9999804496765137
sg13
I54
sg27
I252
sg28
I413
sg29
g30
sg31
g30
sg32
F440.0
sg33
g30
sg34
F386.0
sbag1
(g16
g3
Ntp1232
Rp1233
(dp1234
g20
F0.9999934434890747
sg21
F351.0
sg22
F165.0
sg23
I-1
sg24
I-1
sg25
I186
sg26
F0.9999903440475464
sg13
I67
sg27
I258
sg28
I505
sg29
g30
sg31
g30
sg32
F538.5
sg33
g30
sg34
F471.5
sbag1
(g16
g3
Ntp1235
Rp1236
(dp1237
g20
F0.9988126754760742
sg21
F364.5
sg22
F161.5
sg23
I-1
sg24
I-1
sg25
I203
sg26
F0.9988082647323608
sg13
I69
sg27
I263
sg28
I555
sg29
g30
sg31
g30
sg32
F589.5
sg33
g30
sg34
F520.5
sbag1
(g16
g3
Ntp1238
Rp1239
(dp1240
g20
F0.998471200466156
sg21
F333.5
sg22
F190.5
sg23
I-1
sg24
I-1
sg25
I143
sg26
F0.9983249306678772
sg13
I52
sg27
I262
sg28
I321
sg29
g30
sg31
g30
sg32
F347.0
sg33
g30
sg34
F295.0
sbag1
(g16
g3
Ntp1241
Rp1242
(dp1243
g20
F0.9999821186065674
sg21
F386.5
sg22
F149.5
sg23
I-1
sg24
I-1
sg25
I237
sg26
F0.9999821186065674
sg13
I81
sg27
I268
sg28
I522
sg29
g30
sg31
g30
sg32
F562.5
sg33
g30
sg34
F481.5
sbasg56
g9
sg25
I-1
sg57
g9
sbag1
(g2
g3
Ntp1244
Rp1245
(dp1246
g7
I-1
sg8
g9
sg10
I42
sg11
S'TUD-Crossing/frames_tensorbox/000043.jpg'
p1247
sg13
I-1
sg14
(lp1248
g1
(g16
g3
Ntp1249
Rp1250
(dp1251
g20
F0.9995641112327576
sg21
F362.0
sg22
F158.0
sg23
I-1
sg24
I-1
sg25
I204
sg26
F0.9995641112327576
sg13
I67
sg27
I260
sg28
I158
sg29
g30
sg31
g30
sg32
F191.5
sg33
g30
sg34
F124.5
sbag1
(g16
g3
Ntp1252
Rp1253
(dp1254
g20
F0.9950966238975525
sg21
F314.5
sg22
F169.5
sg23
I-1
sg24
I-1
sg25
I145
sg26
F0.9950966238975525
sg13
I42
sg27
I242
sg28
I269
sg29
g30
sg31
g30
sg32
F290.0
sg33
g30
sg34
F248.0
sbag1
(g16
g3
Ntp1255
Rp1256
(dp1257
g20
F0.9984796643257141
sg21
F331.5
sg22
F182.5
sg23
I-1
sg24
I-1
sg25
I149
sg26
F0.9947572946548462
sg13
I54
sg27
I257
sg28
I318
sg29
g30
sg31
g30
sg32
F345.0
sg33
g30
sg34
F291.0
sbag1
(g16
g3
Ntp1258
Rp1259
(dp1260
g20
F0.9999935626983643
sg21
F332.5
sg22
F159.5
sg23
I-1
sg24
I-1
sg25
I173
sg26
F0.999987006187439
sg13
I60
sg27
I246
sg28
I418
sg29
g30
sg31
g30
sg32
F448.0
sg33
g30
sg34
F388.0
sbag1
(g16
g3
Ntp1261
Rp1262
(dp1263
g20
F0.9999994039535522
sg21
F361.0
sg22
F153.0
sg23
I-1
sg24
I-1
sg25
I208
sg26
F0.9999988079071045
sg13
I78
sg27
I257
sg28
I517
sg29
g30
sg31
g30
sg32
F556.0
sg33
g30
sg34
F478.0
sbag1
(g16
g3
Ntp1264
Rp1265
(dp1266
g20
F0.9978674650192261
sg21
F357.0
sg22
F163.0
sg23
I-1
sg24
I-1
sg25
I194
sg26
F0.9972363114356995
sg13
I64
sg27
I260
sg28
I547
sg29
g30
sg31
g30
sg32
F579.0
sg33
g30
sg34
F515.0
sbag1
(g16
g3
Ntp1267
Rp1268
(dp1269
g20
F0.9999662637710571
sg21
F344.0
sg22
F186.0
sg23
I-1
sg24
I-1
sg25
I158
sg26
F0.9999608993530273
sg13
I50
sg27
I265
sg28
I59
sg29
g30
sg31
g30
sg32
F84.0
sg33
g30
sg34
F34.0
sbag1
(g16
g3
Ntp1270
Rp1271
(dp1272
g20
F0.9999923706054688
sg21
F344.0
sg22
F178.0
sg23
I-1
sg24
I-1
sg25
I166
sg26
F0.9999896287918091
sg13
I59
sg27
I261
sg28
I124
sg29
g30
sg31
g30
sg32
F153.5
sg33
g30
sg34
F94.5
sbag1
(g16
g3
Ntp1273
Rp1274
(dp1275
g20
F0.9999966621398926
sg21
F348.0
sg22
F172.0
sg23
I-1
sg24
I-1
sg25
I176
sg26
F0.9999382495880127
sg13
I64
sg27
I260
sg28
I296
sg29
g30
sg31
g30
sg32
F328.0
sg33
g30
sg34
F264.0
sbasg56
g9
sg25
I-1
sg57
g9
sbag1
(g2
g3
Ntp1276
Rp1277
(dp1278
g7
I-1
sg8
g9
sg10
I43
sg11
S'TUD-Crossing/frames_tensorbox/000044.jpg'
p1279
sg13
I-1
sg14
(lp1280
g1
(g16
g3
Ntp1281
Rp1282
(dp1283
g20
F0.9999973773956299
sg21
F354.0
sg22
F178.0
sg23
I-1
sg24
I-1
sg25
I176
sg26
F0.9999831914901733
sg13
I63
sg27
I266
sg28
I133
sg29
g30
sg31
g30
sg32
F164.5
sg33
g30
sg34
F101.5
sbag1
(g16
g3
Ntp1284
Rp1285
(dp1286
g20
F0.9987442493438721
sg21
F362.5
sg22
F165.5
sg23
I-1
sg24
I-1
sg25
I197
sg26
F0.9943141341209412
sg13
I65
sg27
I264
sg28
I170
sg29
g30
sg31
g30
sg32
F202.5
sg33
g30
sg34
F137.5
sbag1
(g16
g3
Ntp1287
Rp1288
(dp1289
g20
F0.9996852874755859
sg21
F310.0
sg22
F170.0
sg23
I-1
sg24
I-1
sg25
I140
sg26
F0.9984083771705627
sg13
I40
sg27
I240
sg28
I263
sg29
g30
sg31
g30
sg32
F283.0
sg33
g30
sg34
F243.0
sbag1
(g16
g3
Ntp1290
Rp1291
(dp1292
g20
F0.9999723434448242
sg21
F340.5
sg22
F187.5
sg23
I-1
sg24
I-1
sg25
I153
sg26
F0.9999651908874512
sg13
I49
sg27
I264
sg28
I62
sg29
g30
sg31
g30
sg32
F86.5
sg33
g30
sg34
F37.5
sbag1
(g16
g3
Ntp1293
Rp1294
(dp1295
g20
F0.999996542930603
sg21
F343.0
sg22
F153.0
sg23
I-1
sg24
I-1
sg25
I190
sg26
F0.9999861717224121
sg13
I60
sg27
I248
sg28
I425
sg29
g30
sg31
g30
sg32
F455.0
sg33
g30
sg34
F395.0
sbag1
(g16
g3
Ntp1296
Rp1297
(dp1298
g20
F0.9999997615814209
sg21
F362.0
sg22
F150.0
sg23
I-1
sg24
I-1
sg25
I212
sg26
F0.9999983310699463
sg13
I81
sg27
I256
sg28
I526
sg29
g30
sg31
g30
sg32
F566.5
sg33
g30
sg34
F485.5
sbag1
(g16
g3
Ntp1299
Rp1300
(dp1301
g20
F0.9999922513961792
sg21
F345.5
sg22
F172.5
sg23
I-1
sg24
I-1
sg25
I173
sg26
F0.9999874830245972
sg13
I61
sg27
I259
sg28
I298
sg29
g30
sg31
g30
sg32
F328.5
sg33
g30
sg34
F267.5
sbag1
(g16
g3
Ntp1302
Rp1303
(dp1304
g20
F0.9977014660835266
sg21
F335.0
sg22
F185.0
sg23
I-1
sg24
I-1
sg25
I150
sg26
F0.992972731590271
sg13
I54
sg27
I260
sg28
I338
sg29
g30
sg31
g30
sg32
F365.0
sg33
g30
sg34
F311.0
sbasg56
g9
sg25
I-1
sg57
g9
sbag1
(g2
g3
Ntp1305
Rp1306
(dp1307
g7
I-1
sg8
g9
sg10
I44
sg11
S'TUD-Crossing/frames_tensorbox/000045.jpg'
p1308
sg13
I-1
sg14
(lp1309
g1
(g16
g3
Ntp1310
Rp1311
(dp1312
g20
F0.9999650716781616
sg21
F346.0
sg22
F138.0
sg23
I-1
sg24
I-1
sg25
I208
sg26
F0.9986817240715027
sg13
I67
sg27
I242
sg28
I432
sg29
g30
sg31
g30
sg32
F465.5
sg33
g30
sg34
F398.5
sbag1
(g16
g3
Ntp1313
Rp1314
(dp1315
g20
F0.9980500936508179
sg21
F362.5
sg22
F169.5
sg23
I-1
sg24
I-1
sg25
I193
sg26
F0.9574723839759827
sg13
I62
sg27
I266
sg28
I172
sg29
g30
sg31
g30
sg32
F203.0
sg33
g30
sg34
F141.0
sbag1
(g16
g3
Ntp1316
Rp1317
(dp1318
g20
F0.9963456988334656
sg21
F309.5
sg22
F170.5
sg23
I-1
sg24
I-1
sg25
I139
sg26
F0.9963456988334656
sg13
I40
sg27
I240
sg28
I261
sg29
g30
sg31
g30
sg32
F281.0
sg33
g30
sg34
F241.0
sbag1
(g16
g3
Ntp1319
Rp1320
(dp1321
g20
F0.9999686479568481
sg21
F341.5
sg22
F188.5
sg23
I-1
sg24
I-1
sg25
I153
sg26
F0.9999527931213379
sg13
I47
sg27
I265
sg28
I63
sg29
g30
sg31
g30
sg32
F86.5
sg33
g30
sg34
F39.5
sbag1
(g16
g3
Ntp1322
Rp1323
(dp1324
g20
F0.9999784231185913
sg21
F330.5
sg22
F175.5
sg23
I-1
sg24
I-1
sg25
I155
sg26
F0.9999731779098511
sg13
I54
sg27
I253
sg28
I295
sg29
g30
sg31
g30
sg32
F322.0
sg33
g30
sg34
F268.0
sbag1
(g16
g3
Ntp1325
Rp1326
(dp1327
g20
F1.0
sg21
F373.5
sg22
F142.5
sg23
I-1
sg24
I-1
sg25
I231
sg26
F0.9999998807907104
sg13
I89
sg27
I258
sg28
I528
sg29
g30
sg31
g30
sg32
F572.5
sg33
g30
sg34
F483.5
sbag1
(g16
g3
Ntp1328
Rp1329
(dp1330
g20
F0.9999954700469971
sg21
F345.0
sg22
F179.0
sg23
I-1
sg24
I-1
sg25
I166
sg26
F0.999992847442627
sg13
I55
sg27
I262
sg28
I135
sg29
g30
sg31
g30
sg32
F162.5
sg33
g30
sg34
F107.5
sbag1
(g16
g3
Ntp1331
Rp1332
(dp1333
g20
F0.9882999658584595
sg21
F343.0
sg22
F185.0
sg23
I-1
sg24
I-1
sg25
I158
sg26
F0.9760033488273621
sg13
I59
sg27
I264
sg28
I334
sg29
g30
sg31
g30
sg32
F363.5
sg33
g30
sg34
F304.5
sbasg56
g9
sg25
I-1
sg57
g9
sbag1
(g2
g3
Ntp1334
Rp1335
(dp1336
g7
I-1
sg8
g9
sg10
I45
sg11
S'TUD-Crossing/frames_tensorbox/000046.jpg'
p1337
sg13
I-1
sg14
(lp1338
g1
(g16
g3
Ntp1339
Rp1340
(dp1341
g20
F0.9999854564666748
sg21
F340.0
sg22
F138.0
sg23
I-1
sg24
I-1
sg25
I202
sg26
F0.9999854564666748
sg13
I68
sg27
I239
sg28
I438
sg29
g30
sg31
g30
sg32
F472.0
sg33
g30
sg34
F404.0
sbag1
(g16
g3
Ntp1342
Rp1343
(dp1344
g20
F0.9981697797775269
sg21
F360.5
sg22
F171.5
sg23
I-1
sg24
I-1
sg25
I189
sg26
F0.9647420644760132
sg13
I62
sg27
I266
sg28
I174
sg29
g30
sg31
g30
sg32
F205.0
sg33
g30
sg34
F143.0
sbag1
(g16
g3
Ntp1345
Rp1346
(dp1347
g20
F0.9999642372131348
sg21
F321.5
sg22
F168.5
sg23
I-1
sg24
I-1
sg25
I153
sg26
F0.9999450445175171
sg13
I50
sg27
I245
sg28
I297
sg29
g30
sg31
g30
sg32
F322.0
sg33
g30
sg34
F272.0
sbag1
(g16
g3
Ntp1348
Rp1349
(dp1350
g20
F0.9987743496894836
sg21
F335.0
sg22
F187.0
sg23
I-1
sg24
I-1
sg25
I148
sg26
F0.9944414496421814
sg13
I54
sg27
I261
sg28
I348
sg29
g30
sg31
g30
sg32
F375.0
sg33
g30
sg34
F321.0
sbag1
(g16
g3
Ntp1351
Rp1352
(dp1353
g20
F1.0
sg21
F371.0
sg22
F147.0
sg23
I-1
sg24
I-1
sg25
I224
sg26
F0.9999998807907104
sg13
I88
sg27
I259
sg28
I527
sg29
g30
sg31
g30
sg32
F571.0
sg33
g30
sg34
F483.0
sbag1
(g16
g3
Ntp1354
Rp1355
(dp1356
g20
F0.9999793767929077
sg21
F344.0
sg22
F190.0
sg23
I-1
sg24
I-1
sg25
I154
sg26
F0.9999765157699585
sg13
I51
sg27
I267
sg28
I63
sg29
g30
sg31
g30
sg32
F88.5
sg33
g30
sg34
F37.5
sbag1
(g16
g3
Ntp1357
Rp1358
(dp1359
g20
F0.9999921321868896
sg21
F343.5
sg22
F184.5
sg23
I-1
sg24
I-1
sg25
I159
sg26
F0.9999876022338867
sg13
I52
sg27
I264
sg28
I133
sg29
g30
sg31
g30
sg32
F159.0
sg33
g30
sg34
F107.0
sbasg56
g9
sg25
I-1
sg57
g9
sbag1
(g2
g3
Ntp1360
Rp1361
(dp1362
g7
I-1
sg8
g9
sg10
I46
sg11
S'TUD-Crossing/frames_tensorbox/000047.jpg'
p1363
sg13
I-1
sg14
(lp1364
g1
(g16
g3
Ntp1365
Rp1366
(dp1367
g20
F0.9998912811279297
sg21
F341.0
sg22
F175.0
sg23
I-1
sg24
I-1
sg25
I166
sg26
F0.9998912811279297
sg13
I58
sg27
I258
sg28
I331
sg29
g30
sg31
g30
sg32
F360.0
sg33
g30
sg34
F302.0
sbag1
(g16
g3
Ntp1368
Rp1369
(dp1370
g20
F0.9999812841415405
sg21
F329.0
sg22
F137.0
sg23
I-1
sg24
I-1
sg25
I192
sg26
F0.9999812841415405
sg13
I58
sg27
I233
sg28
I445
sg29
g30
sg31
g30
sg32
F474.0
sg33
g30
sg34
F416.0
sbag1
(g16
g3
Ntp1371
Rp1372
(dp1373
g20
F0.9999722242355347
sg21
F342.0
sg22
F184.0
sg23
I-1
sg24
I-1
sg25
I158
sg26
F0.9999322891235352
sg13
I50
sg27
I263
sg28
I125
sg29
g30
sg31
g30
sg32
F150.0
sg33
g30
sg34
F100.0
sbag1
(g16
g3
Ntp1374
Rp1375
(dp1376
g20
F0.9984142780303955
sg21
F350.0
sg22
F174.0
sg23
I-1
sg24
I-1
sg25
I176
sg26
F0.9984142780303955
sg13
I57
sg27
I262
sg28
I190
sg29
g30
sg31
g30
sg32
F218.5
sg33
g30
sg34
F161.5
sbag1
(g16
g3
Ntp1377
Rp1378
(dp1379
g20
F0.9999498128890991
sg21
F315.5
sg22
F170.5
sg23
I-1
sg24
I-1
sg25
I145
sg26
F0.9989826083183289
sg13
I49
sg27
I243
sg28
I296
sg29
g30
sg31
g30
sg32
F320.5
sg33
g30
sg34
F271.5
sbag1
(g16
g3
Ntp1380
Rp1381
(dp1382
g20
F0.9996241331100464
sg21
F345.5
sg22
F174.5
sg23
I-1
sg24
I-1
sg25
I171
sg26
F0.9994633793830872
sg13
I58
sg27
I260
sg28
I361
sg29
g30
sg31
g30
sg32
F390.0
sg33
g30
sg34
F332.0
sbag1
(g16
g3
Ntp1383
Rp1384
(dp1385
g20
F0.9999991655349731
sg21
F354.5
sg22
F159.5
sg23
I-1
sg24
I-1
sg25
I195
sg26
F0.9999982118606567
sg13
I72
sg27
I257
sg28
I523
sg29
g30
sg31
g30
sg32
F559.0
sg33
g30
sg34
F487.0
sbag1
(g16
g3
Ntp1386
Rp1387
(dp1388
g20
F0.9999903440475464
sg21
F347.0
sg22
F183.0
sg23
I-1
sg24
I-1
sg25
I164
sg26
F0.9999861717224121
sg13
I54
sg27
I265
sg28
I67
sg29
g30
sg31
g30
sg32
F94.0
sg33
g30
sg34
F40.0
sbag1
(g16
g3
Ntp1389
Rp1390
(dp1391
g20
F0.9999645948410034
sg21
F343.0
sg22
F177.0
sg23
I-1
sg24
I-1
sg25
I166
sg26
F0.9999392032623291
sg13
I58
sg27
I260
sg28
I147
sg29
g30
sg31
g30
sg32
F176.0
sg33
g30
sg34
F118.0
sbasg56
g9
sg25
I-1
sg57
g9
sbag1
(g2
g3
Ntp1392
Rp1393
(dp1394
g7
I-1
sg8
g9
sg10
I47
sg11
S'TUD-Crossing/frames_tensorbox/000048.jpg'
p1395
sg13
I-1
sg14
(lp1396
g1
(g16
g3
Ntp1397
Rp1398
(dp1399
g20
F0.9984754920005798
sg21
F350.5
sg22
F177.5
sg23
I-1
sg24
I-1
sg25
I173
sg26
F0.9984754920005798
sg13
I54
sg27
I264
sg28
I97
sg29
g30
sg31
g30
sg32
F124.0
sg33
g30
sg34
F70.0
sbag1
(g16
g3
Ntp1400
Rp1401
(dp1402
g20
F0.9981764554977417
sg21
F339.5
sg22
F178.5
sg23
I-1
sg24
I-1
sg25
I161
sg26
F0.9981764554977417
sg13
I54
sg27
I259
sg28
I189
sg29
g30
sg31
g30
sg32
F216.0
sg33
g30
sg34
F162.0
sbag1
(g16
g3
Ntp1403
Rp1404
(dp1405
g20
F0.9991682767868042
sg21
F357.5
sg22
F154.5
sg23
I-1
sg24
I-1
sg25
I203
sg26
F0.9991682767868042
sg13
I69
sg27
I256
sg28
I540
sg29
g30
sg31
g30
sg32
F574.5
sg33
g30
sg34
F505.5
sbag1
(g16
g3
Ntp1406
Rp1407
(dp1408
g20
F0.9999068975448608
sg21
F347.0
sg22
F177.0
sg23
I-1
sg24
I-1
sg25
I170
sg26
F0.9999068975448608
sg13
I62
sg27
I262
sg28
I334
sg29
g30
sg31
g30
sg32
F365.0
sg33
g30
sg34
F303.0
sbag1
(g16
g3
Ntp1409
Rp1410
(dp1411
g20
F0.9999778270721436
sg21
F328.0
sg22
F160.0
sg23
I-1
sg24
I-1
sg25
I168
sg26
F0.9999722242355347
sg13
I52
sg27
I244
sg28
I451
sg29
g30
sg31
g30
sg32
F477.0
sg33
g30
sg34
F425.0
sbag1
(g16
g3
Ntp1412
Rp1413
(dp1414
g20
F0.9999996423721313
sg21
F361.5
sg22
F154.5
sg23
I-1
sg24
I-1
sg25
I207
sg26
F0.999998927116394
sg13
I80
sg27
I258
sg28
I519
sg29
g30
sg31
g30
sg32
F559.0
sg33
g30
sg34
F479.0
sbag1
(g16
g3
Ntp1415
Rp1416
(dp1417
g20
F0.999991774559021
sg21
F342.5
sg22
F175.5
sg23
I-1
sg24
I-1
sg25
I167
sg26
F0.9999878406524658
sg13
I59
sg27
I259
sg28
I158
sg29
g30
sg31
g30
sg32
F187.5
sg33
g30
sg34
F128.5
sbag1
(g16
g3
Ntp1418
Rp1419
(dp1420
g20
F0.9999892711639404
sg21
F340.5
sg22
F183.5
sg23
I-1
sg24
I-1
sg25
I157
sg26
F0.9999774694442749
sg13
I60
sg27
I262
sg28
I318
sg29
g30
sg31
g30
sg32
F348.0
sg33
g30
sg34
F288.0
sbag1
(g16
g3
Ntp1421
Rp1422
(dp1423
g20
F0.9986225366592407
sg21
F350.0
sg22
F168.0
sg23
I-1
sg24
I-1
sg25
I182
sg26
F0.9972134232521057
sg13
I64
sg27
I259
sg28
I344
sg29
g30
sg31
g30
sg32
F376.0
sg33
g30
sg34
F312.0
sbasg56
g9
sg25
I-1
sg57
g9
sbag1
(g2
g3
Ntp1424
Rp1425
(dp1426
g7
I-1
sg8
g9
sg10
I48
sg11
S'TUD-Crossing/frames_tensorbox/000049.jpg'
p1427
sg13
I-1
sg14
(lp1428
g1
(g16
g3
Ntp1429
Rp1430
(dp1431
g20
F0.9962661862373352
sg21
F351.5
sg22
F176.5
sg23
I-1
sg24
I-1
sg25
I175
sg26
F0.9962661862373352
sg13
I56
sg27
I264
sg28
I89
sg29
g30
sg31
g30
sg32
F117.0
sg33
g30
sg34
F61.0
sbag1
(g16
g3
Ntp1432
Rp1433
(dp1434
g20
F0.9999977350234985
sg21
F349.0
sg22
F155.0
sg23
I-1
sg24
I-1
sg25
I194
sg26
F0.9999977350234985
sg13
I68
sg27
I252
sg28
I477
sg29
g30
sg31
g30
sg32
F511.0
sg33
g30
sg34
F443.0
sbag1
(g16
g3
Ntp1435
Rp1436
(dp1437
g20
F0.9999747276306152
sg21
F361.5
sg22
F164.5
sg23
I-1
sg24
I-1
sg25
I197
sg26
F0.9986417889595032
sg13
I70
sg27
I263
sg28
I525
sg29
g30
sg31
g30
sg32
F560.0
sg33
g30
sg34
F490.0
sbag1
(g16
g3
Ntp1438
Rp1439
(dp1440
g20
F0.9992913007736206
sg21
F352.0
sg22
F162.0
sg23
I-1
sg24
I-1
sg25
I190
sg26
F0.9992913007736206
sg13
I63
sg27
I257
sg28
I540
sg29
g30
sg31
g30
sg32
F571.5
sg33
g30
sg34
F508.5
sbag1
(g16
g3
Ntp1441
Rp1442
(dp1443
g20
F0.9972388744354248
sg21
F346.5
sg22
F177.5
sg23
I-1
sg24
I-1
sg25
I169
sg26
F0.9966822266578674
sg13
I57
sg27
I262
sg28
I195
sg29
g30
sg31
g30
sg32
F223.5
sg33
g30
sg34
F166.5
sbag1
(g16
g3
Ntp1444
Rp1445
(dp1446
g20
F0.9999954700469971
sg21
F341.5
sg22
F178.5
sg23
I-1
sg24
I-1
sg25
I163
sg26
F0.9999911785125732
sg13
I60
sg27
I260
sg28
I164
sg29
g30
sg31
g30
sg32
F194.0
sg33
g30
sg34
F134.0
sbag1
(g16
g3
Ntp1447
Rp1448
(dp1449
g20
F0.9999816417694092
sg21
F341.5
sg22
F184.5
sg23
I-1
sg24
I-1
sg25
I157
sg26
F0.9999756813049316
sg13
I56
sg27
I263
sg28
I325
sg29
g30
sg31
g30
sg32
F353.0
sg33
g30
sg34
F297.0
sbag1
(g16
g3
Ntp1450
Rp1451
(dp1452
g20
F0.9996235370635986
sg21
F354.0
sg22
F164.0
sg23
I-1
sg24
I-1
sg25
I190
sg26
F0.9995957016944885
sg13
I67
sg27
I259
sg28
I351
sg29
g30
sg31
g30
sg32
F384.5
sg33
g30
sg34
F317.5
sbasg56
g9
sg25
I-1
sg57
g9
sbag1
(g2
g3
Ntp1453
Rp1454
(dp1455
g7
I-1
sg8
g9
sg10
I49
sg11
S'TUD-Crossing/frames_tensorbox/000050.jpg'
p1456
sg13
I-1
sg14
(lp1457
g1
(g16
g3
Ntp1458
Rp1459
(dp1460
g20
F0.9999974966049194
sg21
F347.0
sg22
F157.0
sg23
I-1
sg24
I-1
sg25
I190
sg26
F0.9998574256896973
sg13
I68
sg27
I252
sg28
I477
sg29
g30
sg31
g30
sg32
F511.0
sg33
g30
sg34
F443.0
sbag1
(g16
g3
Ntp1461
Rp1462
(dp1463
g20
F0.9999854564666748
sg21
F375.5
sg22
F154.5
sg23
I-1
sg24
I-1
sg25
I221
sg26
F0.9999854564666748
sg13
I79
sg27
I265
sg28
I521
sg29
g30
sg31
g30
sg32
F560.5
sg33
g30
sg34
F481.5
sbag1
(g16
g3
Ntp1464
Rp1465
(dp1466
g20
F0.9999982118606567
sg21
F361.5
sg22
F164.5
sg23
I-1
sg24
I-1
sg25
I197
sg26
F0.999997615814209
sg13
I63
sg27
I263
sg28
I80
sg29
g30
sg31
g30
sg32
F111.5
sg33
g30
sg34
F48.5
sbag1
(g16
g3
Ntp1467
Rp1468
(dp1469
g20
F0.9999295473098755
sg21
F334.0
sg22
F180.0
sg23
I-1
sg24
I-1
sg25
I154
sg26
F0.9998900890350342
sg13
I49
sg27
I257
sg28
I326
sg29
g30
sg31
g30
sg32
F350.5
sg33
g30
sg34
F301.5
sbag1
(g16
g3
Ntp1470
Rp1471
(dp1472
g20
F0.9972240924835205
sg21
F351.0
sg22
F169.0
sg23
I-1
sg24
I-1
sg25
I182
sg26
F0.9928559064865112
sg13
I55
sg27
I260
sg28
I366
sg29
g30
sg31
g30
sg32
F393.5
sg33
g30
sg34
F338.5
sbag1
(g16
g3
Ntp1473
Rp1474
(dp1475
g20
F0.9995154142379761
sg21
F351.5
sg22
F160.5
sg23
I-1
sg24
I-1
sg25
I191
sg26
F0.9995023012161255
sg13
I66
sg27
I256
sg28
I520
sg29
g30
sg31
g30
sg32
F553.0
sg33
g30
sg34
F487.0
sbag1
(g16
g3
Ntp1476
Rp1477
(dp1478
g20
F0.9999948740005493
sg21
F341.0
sg22
F179.0
sg23
I-1
sg24
I-1
sg25
I162
sg26
F0.9999884366989136
sg13
I57
sg27
I260
sg28
I168
sg29
g30
sg31
g30
sg32
F196.5
sg33
g30
sg34
F139.5
sbag1
(g16
g3
Ntp1479
Rp1480
(dp1481
g20
F0.9989067316055298
sg21
F341.0
sg22
F179.0
sg23
I-1
sg24
I-1
sg25
I162
sg26
F0.9980732202529907
sg13
I63
sg27
I260
sg28
I186
sg29
g30
sg31
g30
sg32
F217.5
sg33
g30
sg34
F154.5
sbag1
(g16
g3
Ntp1482
Rp1483
(dp1484
g20
F0.999954104423523
sg21
F341.0
sg22
F175.0
sg23
I-1
sg24
I-1
sg25
I166
sg26
F0.999954104423523
sg13
I55
sg27
I258
sg28
I344
sg29
g30
sg31
g30
sg32
F371.5
sg33
g30
sg34
F316.5
sbasg56
g9
sg25
I-1
sg57
g9
sbag1
(g2
g3
Ntp1485
Rp1486
(dp1487
g7
I-1
sg8
g9
sg10
I50
sg11
S'TUD-Crossing/frames_tensorbox/000051.jpg'
p1488
sg13
I-1
sg14
(lp1489
g1
(g16
g3
Ntp1490
Rp1491
(dp1492
g20
F0.9999996423721313
sg21
F352.5
sg22
F139.5
sg23
I-1
sg24
I-1
sg25
I213
sg26
F0.9999996423721313
sg13
I81
sg27
I246
sg28
I485
sg29
g30
sg31
g30
sg32
F525.5
sg33
g30
sg34
F444.5
sbag1
(g16
g3
Ntp1493
Rp1494
(dp1495
g20
F0.9997829794883728
sg21
F341.5
sg22
F158.5
sg23
I-1
sg24
I-1
sg25
I183
sg26
F0.9862675666809082
sg13
I61
sg27
I250
sg28
I549
sg29
g30
sg31
g30
sg32
F579.5
sg33
g30
sg34
F518.5
sbag1
(g16
g3
Ntp1496
Rp1497
(dp1498
g20
F0.999997615814209
sg21
F359.0
sg22
F165.0
sg23
I-1
sg24
I-1
sg25
I194
sg26
F0.9999963045120239
sg13
I61
sg27
I262
sg28
I81
sg29
g30
sg31
g30
sg32
F111.5
sg33
g30
sg34
F50.5
sbag1
(g16
g3
Ntp1499
Rp1500
(dp1501
g20
F0.9999490976333618
sg21
F339.5
sg22
F170.5
sg23
I-1
sg24
I-1
sg25
I169
sg26
F0.9999392032623291
sg13
I55
sg27
I255
sg28
I330
sg29
g30
sg31
g30
sg32
F357.5
sg33
g30
sg34
F302.5
sbag1
(g16
g3
Ntp1502
Rp1503
(dp1504
g20
F0.9971368312835693
sg21
F354.0
sg22
F162.0
sg23
I-1
sg24
I-1
sg25
I192
sg26
F0.9892470240592957
sg13
I62
sg27
I258
sg28
I567
sg29
g30
sg31
g30
sg32
F598.0
sg33
g30
sg34
F536.0
sbag1
(g16
g3
Ntp1505
Rp1506
(dp1507
g20
F0.9999940395355225
sg21
F342.0
sg22
F182.0
sg23
I-1
sg24
I-1
sg25
I160
sg26
F0.9999843835830688
sg13
I54
sg27
I262
sg28
I171
sg29
g30
sg31
g30
sg32
F198.0
sg33
g30
sg34
F144.0
sbag1
(g16
g3
Ntp1508
Rp1509
(dp1510
g20
F0.9976959824562073
sg21
F350.5
sg22
F185.5
sg23
I-1
sg24
I-1
sg25
I165
sg26
F0.9960229396820068
sg13
I56
sg27
I268
sg28
I202
sg29
g30
sg31
g30
sg32
F230.0
sg33
g30
sg34
F174.0
sbag1
(g16
g3
Ntp1511
Rp1512
(dp1513
g20
F0.9956871867179871
sg21
F358.0
sg22
F160.0
sg23
I-1
sg24
I-1
sg25
I198
sg26
F0.9936732053756714
sg13
I70
sg27
I259
sg28
I368
sg29
g30
sg31
g30
sg32
F403.0
sg33
g30
sg34
F333.0
sbasg56
g9
sg25
I-1
sg57
g9
sbag1
(g2
g3
Ntp1514
Rp1515
(dp1516
g7
I-1
sg8
g9
sg10
I51
sg11
S'TUD-Crossing/frames_tensorbox/000052.jpg'
p1517
sg13
I-1
sg14
(lp1518
g1
(g16
g3
Ntp1519
Rp1520
(dp1521
g20
F0.9999691247940063
sg21
F358.0
sg22
F168.0
sg23
I-1
sg24
I-1
sg25
I190
sg26
F0.9999691247940063
sg13
I62
sg27
I263
sg28
I368
sg29
g30
sg31
g30
sg32
F399.0
sg33
g30
sg34
F337.0
sbag1
(g16
g3
Ntp1522
Rp1523
(dp1524
g20
F0.9979825019836426
sg21
F350.5
sg22
F171.5
sg23
I-1
sg24
I-1
sg25
I179
sg26
F0.9973287582397461
sg13
I57
sg27
I261
sg28
I200
sg29
g30
sg31
g30
sg32
F228.5
sg33
g30
sg34
F171.5
sbag1
(g16
g3
Ntp1525
Rp1526
(dp1527
g20
F0.9911864399909973
sg21
F326.5
sg22
F171.5
sg23
I-1
sg24
I-1
sg25
I155
sg26
F0.9535208344459534
sg13
I47
sg27
I249
sg28
I323
sg29
g30
sg31
g30
sg32
F346.5
sg33
g30
sg34
F299.5
sbag1
(g16
g3
Ntp1528
Rp1529
(dp1530
g20
F0.9999998807907104
sg21
F363.5
sg22
F134.5
sg23
I-1
sg24
I-1
sg25
I229
sg26
F0.9999997615814209
sg13
I92
sg27
I249
sg28
I483
sg29
g30
sg31
g30
sg32
F529.0
sg33
g30
sg34
F437.0
sbag1
(g16
g3
Ntp1531
Rp1532
(dp1533
g20
F0.9999985694885254
sg21
F364.0
sg22
F158.0
sg23
I-1
sg24
I-1
sg25
I206
sg26
F0.9999712705612183
sg13
I65
sg27
I261
sg28
I84
sg29
g30
sg31
g30
sg32
F116.5
sg33
g30
sg34
F51.5
sbag1
(g16
g3
Ntp1534
Rp1535
(dp1536
g20
F0.9999940395355225
sg21
F340.0
sg22
F180.0
sg23
I-1
sg24
I-1
sg25
I160
sg26
F0.9999825954437256
sg13
I54
sg27
I260
sg28
I173
sg29
g30
sg31
g30
sg32
F200.0
sg33
g30
sg34
F146.0
sbag1
(g16
g3
Ntp1537
Rp1538
(dp1539
g20
F0.9999558925628662
sg21
F361.0
sg22
F159.0
sg23
I-1
sg24
I-1
sg25
I202
sg26
F0.9999310970306396
sg13
I70
sg27
I260
sg28
I557
sg29
g30
sg31
g30
sg32
F592.0
sg33
g30
sg34
F522.0
sbag1
(g16
g3
Ntp1540
Rp1541
(dp1542
g20
F0.9998782873153687
sg21
F329.5
sg22
F168.5
sg23
I-1
sg24
I-1
sg25
I161
sg26
F0.9998782873153687
sg13
I58
sg27
I249
sg28
I559
sg29
g30
sg31
g30
sg32
F588.0
sg33
g30
sg34
F530.0
sbasg56
g9
sg25
I-1
sg57
g9
sbag1
(g2
g3
Ntp1543
Rp1544
(dp1545
g7
I-1
sg8
g9
sg10
I52
sg11
S'TUD-Crossing/frames_tensorbox/000053.jpg'
p1546
sg13
I-1
sg14
(lp1547
g1
(g16
g3
Ntp1548
Rp1549
(dp1550
g20
F0.9997705817222595
sg21
F339.5
sg22
F174.5
sg23
I-1
sg24
I-1
sg25
I165
sg26
F0.9997705817222595
sg13
I53
sg27
I257
sg28
I364
sg29
g30
sg31
g30
sg32
F390.5
sg33
g30
sg34
F337.5
sbag1
(g16
g3
Ntp1551
Rp1552
(dp1553
g20
F0.9999946355819702
sg21
F344.5
sg22
F171.5
sg23
I-1
sg24
I-1
sg25
I173
sg26
F0.999990701675415
sg13
I57
sg27
I258
sg28
I172
sg29
g30
sg31
g30
sg32
F200.5
sg33
g30
sg34
F143.5
sbag1
(g16
g3
Ntp1554
Rp1555
(dp1556
g20
F0.9999977350234985
sg21
F365.5
sg22
F154.5
sg23
I-1
sg24
I-1
sg25
I211
sg26
F0.9999858140945435
sg13
I65
sg27
I260
sg28
I86
sg29
g30
sg31
g30
sg32
F118.5
sg33
g30
sg34
F53.5
sbag1
(g16
g3
Ntp1557
Rp1558
(dp1559
g20
F0.9986683130264282
sg21
F339.0
sg22
F179.0
sg23
I-1
sg24
I-1
sg25
I160
sg26
F0.998496413230896
sg13
I50
sg27
I259
sg28
I210
sg29
g30
sg31
g30
sg32
F235.0
sg33
g30
sg34
F185.0
sbag1
(g16
g3
Ntp1560
Rp1561
(dp1562
g20
F0.9999998807907104
sg21
F370.0
sg22
F142.0
sg23
I-1
sg24
I-1
sg25
I228
sg26
F0.9999997615814209
sg13
I94
sg27
I256
sg28
I480
sg29
g30
sg31
g30
sg32
F527.0
sg33
g30
sg34
F433.0
sbag1
(g16
g3
Ntp1563
Rp1564
(dp1565
g20
F0.999925971031189
sg21
F340.5
sg22
F185.5
sg23
I-1
sg24
I-1
sg25
I155
sg26
F0.9997943043708801
sg13
I52
sg27
I263
sg28
I341
sg29
g30
sg31
g30
sg32
F367.0
sg33
g30
sg34
F315.0
sbag1
(g16
g3
Ntp1566
Rp1567
(dp1568
g20
F0.9999912977218628
sg21
F361.5
sg22
F152.5
sg23
I-1
sg24
I-1
sg25
I209
sg26
F0.9999896287918091
sg13
I73
sg27
I257
sg28
I564
sg29
g30
sg31
g30
sg32
F600.5
sg33
g30
sg34
F527.5
sbasg56
g9
sg25
I-1
sg57
g9
sbag1
(g2
g3
Ntp1569
Rp1570
(dp1571
g7
I-1
sg8
g9
sg10
I53
sg11
S'TUD-Crossing/frames_tensorbox/000054.jpg'
p1572
sg13
I-1
sg14
(lp1573
g1
(g16
g3
Ntp1574
Rp1575
(dp1576
g20
F0.9997565150260925
sg21
F344.0
sg22
F176.0
sg23
I-1
sg24
I-1
sg25
I168
sg26
F0.9997565150260925
sg13
I55
sg27
I260
sg28
I362
sg29
g30
sg31
g30
sg32
F389.5
sg33
g30
sg34
F334.5
sbag1
(g16
g3
Ntp1577
Rp1578
(dp1579
g20
F0.999951958656311
sg21
F354.0
sg22
F158.0
sg23
I-1
sg24
I-1
sg25
I196
sg26
F0.999951958656311
sg13
I77
sg27
I256
sg28
I423
sg29
g30
sg31
g30
sg32
F461.5
sg33
g30
sg34
F384.5
sbag1
(g16
g3
Ntp1580
Rp1581
(dp1582
g20
F0.9976674914360046
sg21
F338.0
sg22
F168.0
sg23
I-1
sg24
I-1
sg25
I170
sg26
F0.9976674914360046
sg13
I56
sg27
I253
sg28
I405
sg29
g30
sg31
g30
sg32
F433.0
sg33
g30
sg34
F377.0
sbag1
(g16
g3
Ntp1583
Rp1584
(dp1585
g20
F0.9998243451118469
sg21
F382.0
sg22
F146.0
sg23
I-1
sg24
I-1
sg25
I236
sg26
F0.9998243451118469
sg13
I86
sg27
I264
sg28
I519
sg29
g30
sg31
g30
sg32
F562.0
sg33
g30
sg34
F476.0
sbag1
(g16
g3
Ntp1586
Rp1587
(dp1588
g20
F0.9999861717224121
sg21
F354.0
sg22
F172.0
sg23
I-1
sg24
I-1
sg25
I182
sg26
F0.9283471703529358
sg13
I56
sg27
I263
sg28
I91
sg29
g30
sg31
g30
sg32
F119.0
sg33
g30
sg34
F63.0
sbag1
(g16
g3
Ntp1589
Rp1590
(dp1591
g20
F0.9989853501319885
sg21
F339.0
sg22
F179.0
sg23
I-1
sg24
I-1
sg25
I160
sg26
F0.9988583326339722
sg13
I52
sg27
I259
sg28
I213
sg29
g30
sg31
g30
sg32
F239.0
sg33
g30
sg34
F187.0
sbag1
(g16
g3
Ntp1592
Rp1593
(dp1594
g20
F0.9982485771179199
sg21
F332.5
sg22
F179.5
sg23
I-1
sg24
I-1
sg25
I153
sg26
F0.9955509901046753
sg13
I44
sg27
I256
sg28
I327
sg29
g30
sg31
g30
sg32
F349.0
sg33
g30
sg34
F305.0
sbag1
(g16
g3
Ntp1595
Rp1596
(dp1597
g20
F0.9999979734420776
sg21
F352.0
sg22
F150.0
sg23
I-1
sg24
I-1
sg25
I202
sg26
F0.9999959468841553
sg13
I81
sg27
I251
sg28
I472
sg29
g30
sg31
g30
sg32
F512.5
sg33
g30
sg34
F431.5
sbag1
(g16
g3
Ntp1598
Rp1599
(dp1600
g20
F0.9999970197677612
sg21
F350.0
sg22
F158.0
sg23
I-1
sg24
I-1
sg25
I192
sg26
F0.9999954700469971
sg13
I69
sg27
I254
sg28
I574
sg29
g30
sg31
g30
sg32
F608.5
sg33
g30
sg34
F539.5
sbag1
(g16
g3
Ntp1601
Rp1602
(dp1603
g20
F0.9999955892562866
sg21
F343.0
sg22
F173.0
sg23
I-1
sg24
I-1
sg25
I170
sg26
F0.9999949932098389
sg13
I56
sg27
I258
sg28
I179
sg29
g30
sg31
g30
sg32
F207.0
sg33
g30
sg34
F151.0
sbasg56
g9
sg25
I-1
sg57
g9
sbag1
(g2
g3
Ntp1604
Rp1605
(dp1606
g7
I-1
sg8
g9
sg10
I54
sg11
S'TUD-Crossing/frames_tensorbox/000055.jpg'
p1607
sg13
I-1
sg14
(lp1608
g1
(g16
g3
Ntp1609
Rp1610
(dp1611
g20
F0.9999526739120483
sg21
F336.5
sg22
F173.5
sg23
I-1
sg24
I-1
sg25
I163
sg26
F0.9999526739120483
sg13
I55
sg27
I255
sg28
I166
sg29
g30
sg31
g30
sg32
F193.5
sg33
g30
sg34
F138.5
sbag1
(g16
g3
Ntp1612
Rp1613
(dp1614
g20
F0.9988345503807068
sg21
F341.5
sg22
F170.5
sg23
I-1
sg24
I-1
sg25
I171
sg26
F0.9988345503807068
sg13
I58
sg27
I256
sg28
I213
sg29
g30
sg31
g30
sg32
F242.0
sg33
g30
sg34
F184.0
sbag1
(g16
g3
Ntp1615
Rp1616
(dp1617
g20
F0.9999645948410034
sg21
F331.0
sg22
F155.0
sg23
I-1
sg24
I-1
sg25
I176
sg26
F0.9999645948410034
sg13
I64
sg27
I243
sg28
I466
sg29
g30
sg31
g30
sg32
F498.0
sg33
g30
sg34
F434.0
sbag1
(g16
g3
Ntp1618
Rp1619
(dp1620
g20
F0.9999957084655762
sg21
F360.5
sg22
F165.5
sg23
I-1
sg24
I-1
sg25
I195
sg26
F0.9999957084655762
sg13
I62
sg27
I263
sg28
I96
sg29
g30
sg31
g30
sg32
F127.0
sg33
g30
sg34
F65.0
sbag1
(g16
g3
Ntp1621
Rp1622
(dp1623
g20
F0.9999990463256836
sg21
F355.5
sg22
F156.5
sg23
I-1
sg24
I-1
sg25
I199
sg26
F0.9999942779541016
sg13
I73
sg27
I256
sg28
I580
sg29
g30
sg31
g30
sg32
F616.5
sg33
g30
sg34
F543.5
sbag1
(g16
g3
Ntp1624
Rp1625
(dp1626
g20
F0.9998575448989868
sg21
F365.5
sg22
F148.5
sg23
I-1
sg24
I-1
sg25
I217
sg26
F0.998488187789917
sg13
I83
sg27
I257
sg28
I475
sg29
g30
sg31
g30
sg32
F516.5
sg33
g30
sg34
F433.5
sbag1
(g16
g3
Ntp1627
Rp1628
(dp1629
g20
F0.9999371767044067
sg21
F344.0
sg22
F186.0
sg23
I-1
sg24
I-1
sg25
I158
sg26
F0.9998121857643127
sg13
I52
sg27
I265
sg28
I341
sg29
g30
sg31
g30
sg32
F367.0
sg33
g30
sg34
F315.0
sbag1
(g16
g3
Ntp1630
Rp1631
(dp1632
g20
F0.9997103810310364
sg21
F340.5
sg22
F191.5
sg23
I-1
sg24
I-1
sg25
I149
sg26
F0.9996102452278137
sg13
I51
sg27
I266
sg28
I396
sg29
g30
sg31
g30
sg32
F421.5
sg33
g30
sg34
F370.5
sbag1
(g16
g3
Ntp1633
Rp1634
(dp1635
g20
F0.9999284744262695
sg21
F347.5
sg22
F186.5
sg23
I-1
sg24
I-1
sg25
I161
sg26
F0.9999284744262695
sg13
I62
sg27
I267
sg28
I430
sg29
g30
sg31
g30
sg32
F461.0
sg33
g30
sg34
F399.0
sbasg56
g9
sg25
I-1
sg57
g9
sbag1
(g2
g3
Ntp1636
Rp1637
(dp1638
g7
I-1
sg8
g9
sg10
I55
sg11
S'TUD-Crossing/frames_tensorbox/000056.jpg'
p1639
sg13
I-1
sg14
(lp1640
g1
(g16
g3
Ntp1641
Rp1642
(dp1643
g20
F0.9999549388885498
sg21
F334.5
sg22
F159.5
sg23
I-1
sg24
I-1
sg25
I175
sg26
F0.9999549388885498
sg13
I59
sg27
I247
sg28
I474
sg29
g30
sg31
g30
sg32
F503.5
sg33
g30
sg34
F444.5
sbag1
(g16
g3
Ntp1644
Rp1645
(dp1646
g20
F0.9999943971633911
sg21
F347.0
sg22
F173.0
sg23
I-1
sg24
I-1
sg25
I174
sg26
F0.9999713897705078
sg13
I60
sg27
I260
sg28
I172
sg29
g30
sg31
g30
sg32
F202.0
sg33
g30
sg34
F142.0
sbag1
(g16
g3
Ntp1647
Rp1648
(dp1649
g20
F0.9982172846794128
sg21
F331.0
sg22
F179.0
sg23
I-1
sg24
I-1
sg25
I152
sg26
F0.9972684383392334
sg13
I52
sg27
I255
sg28
I221
sg29
g30
sg31
g30
sg32
F247.0
sg33
g30
sg34
F195.0
sbag1
(g16
g3
Ntp1650
Rp1651
(dp1652
g20
F0.9999955892562866
sg21
F362.5
sg22
F163.5
sg23
I-1
sg24
I-1
sg25
I199
sg26
F0.9999954700469971
sg13
I61
sg27
I263
sg28
I96
sg29
g30
sg31
g30
sg32
F126.5
sg33
g30
sg34
F65.5
sbag1
(g16
g3
Ntp1653
Rp1654
(dp1655
g20
F0.9990872144699097
sg21
F361.0
sg22
F171.0
sg23
I-1
sg24
I-1
sg25
I190
sg26
F0.9981162548065186
sg13
I65
sg27
I266
sg28
I490
sg29
g30
sg31
g30
sg32
F522.5
sg33
g30
sg34
F457.5
sbag1
(g16
g3
Ntp1656
Rp1657
(dp1658
g20
F0.9999995231628418
sg21
F356.5
sg22
F155.5
sg23
I-1
sg24
I-1
sg25
I201
sg26
F0.9999994039535522
sg13
I77
sg27
I256
sg28
I584
sg29
g30
sg31
g30
sg32
F622.5
sg33
g30
sg34
F545.5
sbag1
(g16
g3
Ntp1659
Rp1660
(dp1661
g20
F0.9999697208404541
sg21
F342.0
sg22
F184.0
sg23
I-1
sg24
I-1
sg25
I158
sg26
F0.9998875856399536
sg13
I53
sg27
I263
sg28
I347
sg29
g30
sg31
g30
sg32
F373.5
sg33
g30
sg34
F320.5
sbag1
(g16
g3
Ntp1662
Rp1663
(dp1664
g20
F0.9997784495353699
sg21
F342.0
sg22
F194.0
sg23
I-1
sg24
I-1
sg25
I148
sg26
F0.9997459053993225
sg13
I52
sg27
I268
sg28
I397
sg29
g30
sg31
g30
sg32
F423.0
sg33
g30
sg34
F371.0
sbag1
(g16
g3
Ntp1665
Rp1666
(dp1667
g20
F0.9988572597503662
sg21
F369.5
sg22
F208.5
sg23
I-1
sg24
I-1
sg25
I161
sg26
F0.9988572597503662
sg13
I52
sg27
I289
sg28
I431
sg29
g30
sg31
g30
sg32
F457.0
sg33
g30
sg34
F405.0
sbasg56
g9
sg25
I-1
sg57
g9
sbag1
(g2
g3
Ntp1668
Rp1669
(dp1670
g7
I-1
sg8
g9
sg10
I56
sg11
S'TUD-Crossing/frames_tensorbox/000057.jpg'
p1671
sg13
I-1
sg14
(lp1672
g1
(g16
g3
Ntp1673
Rp1674
(dp1675
g20
F0.9999980926513672
sg21
F345.0
sg22
F163.0
sg23
I-1
sg24
I-1
sg25
I182
sg26
F0.9999980926513672
sg13
I66
sg27
I254
sg28
I198
sg29
g30
sg31
g30
sg32
F231.0
sg33
g30
sg34
F165.0
sbag1
(g16
g3
Ntp1676
Rp1677
(dp1678
g20
F0.9997391104698181
sg21
F364.5
sg22
F145.5
sg23
I-1
sg24
I-1
sg25
I219
sg26
F0.9997391104698181
sg13
I72
sg27
I255
sg28
I445
sg29
g30
sg31
g30
sg32
F481.0
sg33
g30
sg34
F409.0
sbag1
(g16
g3
Ntp1679
Rp1680
(dp1681
g20
F0.9980467557907104
sg21
F335.5
sg22
F176.5
sg23
I-1
sg24
I-1
sg25
I159
sg26
F0.9979999661445618
sg13
I55
sg27
I256
sg28
I225
sg29
g30
sg31
g30
sg32
F252.5
sg33
g30
sg34
F197.5
sbag1
(g16
g3
Ntp1682
Rp1683
(dp1684
g20
F0.9876196384429932
sg21
F326.0
sg22
F178.0
sg23
I-1
sg24
I-1
sg25
I148
sg26
F0.9237847924232483
sg13
I44
sg27
I252
sg28
I399
sg29
g30
sg31
g30
sg32
F421.0
sg33
g30
sg34
F377.0
sbag1
(g16
g3
Ntp1685
Rp1686
(dp1687
g20
F0.999996542930603
sg21
F359.0
sg22
F167.0
sg23
I-1
sg24
I-1
sg25
I192
sg26
F0.9999958276748657
sg13
I61
sg27
I263
sg28
I102
sg29
g30
sg31
g30
sg32
F132.5
sg33
g30
sg34
F71.5
sbag1
(g16
g3
Ntp1688
Rp1689
(dp1690
g20
F0.9994949102401733
sg21
F340.5
sg22
F167.5
sg23
I-1
sg24
I-1
sg25
I173
sg26
F0.998410701751709
sg13
I64
sg27
I254
sg28
I493
sg29
g30
sg31
g30
sg32
F525.0
sg33
g30
sg34
F461.0
sbag1
(g16
g3
Ntp1691
Rp1692
(dp1693
g20
F0.9999994039535522
sg21
F349.0
sg22
F159.0
sg23
I-1
sg24
I-1
sg25
I190
sg26
F0.9999990463256836
sg13
I73
sg27
I254
sg28
I593
sg29
g30
sg31
g30
sg32
F629.5
sg33
g30
sg34
F556.5
sbag1
(g16
g3
Ntp1694
Rp1695
(dp1696
g20
F0.9999667406082153
sg21
F340.5
sg22
F183.5
sg23
I-1
sg24
I-1
sg25
I157
sg26
F0.9999089241027832
sg13
I49
sg27
I262
sg28
I348
sg29
g30
sg31
g30
sg32
F372.5
sg33
g30
sg34
F323.5
sbasg56
g9
sg25
I-1
sg57
g9
sbag1
(g2
g3
Ntp1697
Rp1698
(dp1699
g7
I-1
sg8
g9
sg10
I57
sg11
S'TUD-Crossing/frames_tensorbox/000058.jpg'
p1700
sg13
I-1
sg14
(lp1701
g1
(g16
g3
Ntp1702
Rp1703
(dp1704
g20
F0.9999984502792358
sg21
F356.5
sg22
F163.5
sg23
I-1
sg24
I-1
sg25
I193
sg26
F0.9999984502792358
sg13
I64
sg27
I260
sg28
I423
sg29
g30
sg31
g30
sg32
F455.0
sg33
g30
sg34
F391.0
sbag1
(g16
g3
Ntp1705
Rp1706
(dp1707
g20
F0.9999874830245972
sg21
F330.5
sg22
F157.5
sg23
I-1
sg24
I-1
sg25
I173
sg26
F0.9999451637268066
sg13
I61
sg27
I244
sg28
I506
sg29
g30
sg31
g30
sg32
F536.5
sg33
g30
sg34
F475.5
sbag1
(g16
g3
Ntp1708
Rp1709
(dp1710
g20
F0.9999997615814209
sg21
F362.0
sg22
F152.0
sg23
I-1
sg24
I-1
sg25
I210
sg26
F0.999998927116394
sg13
I79
sg27
I257
sg28
I599
sg29
g30
sg31
g30
sg32
F638.5
sg33
g30
sg34
F559.5
sbag1
(g16
g3
Ntp1711
Rp1712
(dp1713
g20
F0.9999967813491821
sg21
F357.5
sg22
F168.5
sg23
I-1
sg24
I-1
sg25
I189
sg26
F0.999994158744812
sg13
I61
sg27
I263
sg28
I106
sg29
g30
sg31
g30
sg32
F136.5
sg33
g30
sg34
F75.5
sbag1
(g16
g3
Ntp1714
Rp1715
(dp1716
g20
F0.944463849067688
sg21
F331.0
sg22
F189.0
sg23
I-1
sg24
I-1
sg25
I142
sg26
F0.944463849067688
sg13
I39
sg27
I260
sg28
I379
sg29
g30
sg31
g30
sg32
F398.5
sg33
g30
sg34
F359.5
sbag1
(g16
g3
Ntp1717
Rp1718
(dp1719
g20
F0.9997206330299377
sg21
F360.5
sg22
F165.5
sg23
I-1
sg24
I-1
sg25
I195
sg26
F0.9996165037155151
sg13
I65
sg27
I263
sg28
I437
sg29
g30
sg31
g30
sg32
F469.5
sg33
g30
sg34
F404.5
sbag1
(g16
g3
Ntp1720
Rp1721
(dp1722
g20
F0.9999964237213135
sg21
F340.0
sg22
F174.0
sg23
I-1
sg24
I-1
sg25
I166
sg26
F0.9999947547912598
sg13
I59
sg27
I257
sg28
I203
sg29
g30
sg31
g30
sg32
F232.5
sg33
g30
sg34
F173.5
sbag1
(g16
g3
Ntp1723
Rp1724
(dp1725
g20
F0.9986191987991333
sg21
F340.5
sg22
F177.5
sg23
I-1
sg24
I-1
sg25
I163
sg26
F0.9978698492050171
sg13
I59
sg27
I259
sg28
I220
sg29
g30
sg31
g30
sg32
F249.5
sg33
g30
sg34
F190.5
sbag1
(g16
g3
Ntp1726
Rp1727
(dp1728
g20
F0.9999502897262573
sg21
F341.5
sg22
F180.5
sg23
I-1
sg24
I-1
sg25
I161
sg26
F0.999927282333374
sg13
I50
sg27
I261
sg28
I349
sg29
g30
sg31
g30
sg32
F374.0
sg33
g30
sg34
F324.0
sbasg56
g9
sg25
I-1
sg57
g9
sbag1
(g2
g3
Ntp1729
Rp1730
(dp1731
g7
I-1
sg8
g9
sg10
I58
sg11
S'TUD-Crossing/frames_tensorbox/000059.jpg'
p1732
sg13
I-1
sg14
(lp1733
g1
(g16
g3
Ntp1734
Rp1735
(dp1736
g20
F0.9999951124191284
sg21
F364.5
sg22
F157.5
sg23
I-1
sg24
I-1
sg25
I207
sg26
F0.9999951124191284
sg13
I68
sg27
I261
sg28
I407
sg29
g30
sg31
g30
sg32
F441.0
sg33
g30
sg34
F373.0
sbag1
(g16
g3
Ntp1737
Rp1738
(dp1739
g20
F0.9993882179260254
sg21
F357.5
sg22
F160.5
sg23
I-1
sg24
I-1
sg25
I197
sg26
F0.9993237257003784
sg13
I65
sg27
I259
sg28
I228
sg29
g30
sg31
g30
sg32
F260.5
sg33
g30
sg34
F195.5
sbag1
(g16
g3
Ntp1740
Rp1741
(dp1742
g20
F0.9997312426567078
sg21
F322.0
sg22
F164.0
sg23
I-1
sg24
I-1
sg25
I158
sg26
F0.9988915324211121
sg13
I44
sg27
I243
sg28
I347
sg29
g30
sg31
g30
sg32
F369.0
sg33
g30
sg34
F325.0
sbag1
(g16
g3
Ntp1743
Rp1744
(dp1745
g20
F0.9930007457733154
sg21
F357.5
sg22
F160.5
sg23
I-1
sg24
I-1
sg25
I197
sg26
F0.9282138347625732
sg13
I63
sg27
I259
sg28
I431
sg29
g30
sg31
g30
sg32
F462.5
sg33
g30
sg34
F399.5
sbag1
(g16
g3
Ntp1746
Rp1747
(dp1748
g20
F0.9999997615814209
sg21
F359.5
sg22
F152.5
sg23
I-1
sg24
I-1
sg25
I207
sg26
F0.9999982118606567
sg13
I78
sg27
I256
sg28
I598
sg29
g30
sg31
g30
sg32
F637.0
sg33
g30
sg34
F559.0
sbag1
(g16
g3
Ntp1749
Rp1750
(dp1751
g20
F0.9999979734420776
sg21
F358.0
sg22
F166.0
sg23
I-1
sg24
I-1
sg25
I192
sg26
F0.9999959468841553
sg13
I63
sg27
I262
sg28
I111
sg29
g30
sg31
g30
sg32
F142.5
sg33
g30
sg34
F79.5
sbag1
(g16
g3
Ntp1752
Rp1753
(dp1754
g20
F0.9702714681625366
sg21
F328.5
sg22
F185.5
sg23
I-1
sg24
I-1
sg25
I143
sg26
F0.9702714681625366
sg13
I41
sg27
I257
sg28
I378
sg29
g30
sg31
g30
sg32
F398.5
sg33
g30
sg34
F357.5
sbag1
(g16
g3
Ntp1755
Rp1756
(dp1757
g20
F0.9999903440475464
sg21
F330.5
sg22
F153.5
sg23
I-1
sg24
I-1
sg25
I177
sg26
F0.9999876022338867
sg13
I61
sg27
I242
sg28
I510
sg29
g30
sg31
g30
sg32
F540.5
sg33
g30
sg34
F479.5
sbag1
(g16
g3
Ntp1758
Rp1759
(dp1760
g20
F0.9999969005584717
sg21
F338.5
sg22
F169.5
sg23
I-1
sg24
I-1
sg25
I169
sg26
F0.9999958276748657
sg13
I60
sg27
I254
sg28
I205
sg29
g30
sg31
g30
sg32
F235.0
sg33
g30
sg34
F175.0
sbasg56
g9
sg25
I-1
sg57
g9
sbag1
(g2
g3
Ntp1761
Rp1762
(dp1763
g7
I-1
sg8
g9
sg10
I59
sg11
S'TUD-Crossing/frames_tensorbox/000060.jpg'
p1764
sg13
I-1
sg14
(lp1765
g1
(g16
g3
Ntp1766
Rp1767
(dp1768
g20
F0.999998927116394
sg21
F349.5
sg22
F164.5
sg23
I-1
sg24
I-1
sg25
I185
sg26
F0.999998927116394
sg13
I67
sg27
I257
sg28
I217
sg29
g30
sg31
g30
sg32
F250.5
sg33
g30
sg34
F183.5
sbag1
(g16
g3
Ntp1769
Rp1770
(dp1771
g20
F0.9976550340652466
sg21
F331.5
sg22
F158.5
sg23
I-1
sg24
I-1
sg25
I173
sg26
F0.9976550340652466
sg13
I63
sg27
I245
sg28
I426
sg29
g30
sg31
g30
sg32
F457.5
sg33
g30
sg34
F394.5
sbag1
(g16
g3
Ntp1772
Rp1773
(dp1774
g20
F0.9995037317276001
sg21
F338.0
sg22
F170.0
sg23
I-1
sg24
I-1
sg25
I168
sg26
F0.9988580942153931
sg13
I58
sg27
I254
sg28
I239
sg29
g30
sg31
g30
sg32
F268.0
sg33
g30
sg34
F210.0
sbag1
(g16
g3
Ntp1775
Rp1776
(dp1777
g20
F0.999729335308075
sg21
F358.0
sg22
F154.0
sg23
I-1
sg24
I-1
sg25
I204
sg26
F0.999729335308075
sg13
I72
sg27
I256
sg28
I551
sg29
g30
sg31
g30
sg32
F587.0
sg33
g30
sg34
F515.0
sbag1
(g16
g3
Ntp1778
Rp1779
(dp1780
g20
F0.9999992847442627
sg21
F369.5
sg22
F156.5
sg23
I-1
sg24
I-1
sg25
I213
sg26
F0.9999983310699463
sg13
I69
sg27
I263
sg28
I115
sg29
g30
sg31
g30
sg32
F149.5
sg33
g30
sg34
F80.5
sbag1
(g16
g3
Ntp1781
Rp1782
(dp1783
g20
F0.9999405145645142
sg21
F351.5
sg22
F170.5
sg23
I-1
sg24
I-1
sg25
I181
sg26
F0.9999340772628784
sg13
I65
sg27
I261
sg28
I397
sg29
g30
sg31
g30
sg32
F429.5
sg33
g30
sg34
F364.5
sbag1
(g16
g3
Ntp1784
Rp1785
(dp1786
g20
F0.9999942779541016
sg21
F328.5
sg22
F157.5
sg23
I-1
sg24
I-1
sg25
I171
sg26
F0.9999872446060181
sg13
I60
sg27
I243
sg28
I518
sg29
g30
sg31
g30
sg32
F548.0
sg33
g30
sg34
F488.0
sbag1
(g16
g3
Ntp1787
Rp1788
(dp1789
g20
F0.9999955892562866
sg21
F349.0
sg22
F161.0
sg23
I-1
sg24
I-1
sg25
I188
sg26
F0.9999949932098389
sg13
I66
sg27
I255
sg28
I606
sg29
g30
sg31
g30
sg32
F639.0
sg33
g30
sg34
F573.0
sbag1
(g16
g3
Ntp1790
Rp1791
(dp1792
g20
F0.9999690055847168
sg21
F340.5
sg22
F181.5
sg23
I-1
sg24
I-1
sg25
I159
sg26
F0.9999321699142456
sg13
I51
sg27
I261
sg28
I356
sg29
g30
sg31
g30
sg32
F381.5
sg33
g30
sg34
F330.5
sbasg56
g9
sg25
I-1
sg57
g9
sba.